
test.riscv:     file format elf32-littleriscv


Disassembly of section .text.init:

80000000 <_start>:
80000000:	00000093          	li	ra,0
80000004:	00000113          	li	sp,0
80000008:	00000193          	li	gp,0
8000000c:	00000213          	li	tp,0
80000010:	00000293          	li	t0,0
80000014:	00000313          	li	t1,0
80000018:	00000393          	li	t2,0
8000001c:	00000413          	li	s0,0
80000020:	00000493          	li	s1,0
80000024:	00000513          	li	a0,0
80000028:	00000593          	li	a1,0
8000002c:	00000613          	li	a2,0
80000030:	00000693          	li	a3,0
80000034:	00000713          	li	a4,0
80000038:	00000793          	li	a5,0
8000003c:	00000813          	li	a6,0
80000040:	00000893          	li	a7,0
80000044:	00000913          	li	s2,0
80000048:	00000993          	li	s3,0
8000004c:	00000a13          	li	s4,0
80000050:	00000a93          	li	s5,0
80000054:	00000b13          	li	s6,0
80000058:	00000b93          	li	s7,0
8000005c:	00000c13          	li	s8,0
80000060:	00000c93          	li	s9,0
80000064:	00000d13          	li	s10,0
80000068:	00000d93          	li	s11,0
8000006c:	00000e13          	li	t3,0
80000070:	00000e93          	li	t4,0
80000074:	00000f13          	li	t5,0
80000078:	00000f93          	li	t6,0
8000007c:	0001e2b7          	lui	t0,0x1e
80000080:	3002a073          	csrs	mstatus,t0
80000084:	00100293          	li	t0,1
80000088:	01f29293          	slli	t0,t0,0x1f
8000008c:	0002ca63          	bltz	t0,800000a0 <_start+0xa0>
80000090:	00100513          	li	a0,1
80000094:	00001297          	auipc	t0,0x1
80000098:	f6a2a623          	sw	a0,-148(t0) # 80001000 <tohost>
8000009c:	ff5ff06f          	j	80000090 <_start+0x90>
800000a0:	00000297          	auipc	t0,0x0
800000a4:	04028293          	addi	t0,t0,64 # 800000e0 <trap_entry>
800000a8:	30529073          	csrw	mtvec,t0
800000ac:	00005197          	auipc	gp,0x5
800000b0:	8dc18193          	addi	gp,gp,-1828 # 80004988 <__global_pointer$>
800000b4:	88318213          	addi	tp,gp,-1917 # 8000420b <_end+0x3f>
800000b8:	fc027213          	andi	tp,tp,-64
800000bc:	f1402573          	csrr	a0,mhartid
800000c0:	00100593          	li	a1,1
800000c4:	00b57063          	bgeu	a0,a1,800000c4 <_start+0xc4>
800000c8:	00150113          	addi	sp,a0,1
800000cc:	01111113          	slli	sp,sp,0x11
800000d0:	00410133          	add	sp,sp,tp
800000d4:	01151613          	slli	a2,a0,0x11
800000d8:	00c20233          	add	tp,tp,a2
800000dc:	2490206f          	j	80002b24 <_init>

800000e0 <trap_entry>:
800000e0:	ef010113          	addi	sp,sp,-272
800000e4:	00112223          	sw	ra,4(sp)
800000e8:	00212423          	sw	sp,8(sp)
800000ec:	00312623          	sw	gp,12(sp)
800000f0:	00412823          	sw	tp,16(sp)
800000f4:	00512a23          	sw	t0,20(sp)
800000f8:	00612c23          	sw	t1,24(sp)
800000fc:	00712e23          	sw	t2,28(sp)
80000100:	02812023          	sw	s0,32(sp)
80000104:	02912223          	sw	s1,36(sp)
80000108:	02a12423          	sw	a0,40(sp)
8000010c:	02b12623          	sw	a1,44(sp)
80000110:	02c12823          	sw	a2,48(sp)
80000114:	02d12a23          	sw	a3,52(sp)
80000118:	02e12c23          	sw	a4,56(sp)
8000011c:	02f12e23          	sw	a5,60(sp)
80000120:	05012023          	sw	a6,64(sp)
80000124:	05112223          	sw	a7,68(sp)
80000128:	05212423          	sw	s2,72(sp)
8000012c:	05312623          	sw	s3,76(sp)
80000130:	05412823          	sw	s4,80(sp)
80000134:	05512a23          	sw	s5,84(sp)
80000138:	05612c23          	sw	s6,88(sp)
8000013c:	05712e23          	sw	s7,92(sp)
80000140:	07812023          	sw	s8,96(sp)
80000144:	07912223          	sw	s9,100(sp)
80000148:	07a12423          	sw	s10,104(sp)
8000014c:	07b12623          	sw	s11,108(sp)
80000150:	07c12823          	sw	t3,112(sp)
80000154:	07d12a23          	sw	t4,116(sp)
80000158:	07e12c23          	sw	t5,120(sp)
8000015c:	07f12e23          	sw	t6,124(sp)
80000160:	34202573          	csrr	a0,mcause
80000164:	341025f3          	csrr	a1,mepc
80000168:	00010613          	mv	a2,sp
8000016c:	500020ef          	jal	ra,8000266c <handle_trap>
80000170:	34151073          	csrw	mepc,a0
80000174:	000022b7          	lui	t0,0x2
80000178:	80028293          	addi	t0,t0,-2048 # 1800 <_start-0x7fffe800>
8000017c:	3002a073          	csrs	mstatus,t0
80000180:	00412083          	lw	ra,4(sp)
80000184:	00812103          	lw	sp,8(sp)
80000188:	00c12183          	lw	gp,12(sp)
8000018c:	01012203          	lw	tp,16(sp)
80000190:	01412283          	lw	t0,20(sp)
80000194:	01812303          	lw	t1,24(sp)
80000198:	01c12383          	lw	t2,28(sp)
8000019c:	02012403          	lw	s0,32(sp)
800001a0:	02412483          	lw	s1,36(sp)
800001a4:	02812503          	lw	a0,40(sp)
800001a8:	02c12583          	lw	a1,44(sp)
800001ac:	03012603          	lw	a2,48(sp)
800001b0:	03412683          	lw	a3,52(sp)
800001b4:	03812703          	lw	a4,56(sp)
800001b8:	03c12783          	lw	a5,60(sp)
800001bc:	04012803          	lw	a6,64(sp)
800001c0:	04412883          	lw	a7,68(sp)
800001c4:	04812903          	lw	s2,72(sp)
800001c8:	04c12983          	lw	s3,76(sp)
800001cc:	05012a03          	lw	s4,80(sp)
800001d0:	05412a83          	lw	s5,84(sp)
800001d4:	05812b03          	lw	s6,88(sp)
800001d8:	05c12b83          	lw	s7,92(sp)
800001dc:	06012c03          	lw	s8,96(sp)
800001e0:	06412c83          	lw	s9,100(sp)
800001e4:	06812d03          	lw	s10,104(sp)
800001e8:	06c12d83          	lw	s11,108(sp)
800001ec:	07012e03          	lw	t3,112(sp)
800001f0:	07412e83          	lw	t4,116(sp)
800001f4:	07812f03          	lw	t5,120(sp)
800001f8:	07c12f83          	lw	t6,124(sp)
800001fc:	11010113          	addi	sp,sp,272
80000200:	30200073          	mret

Disassembly of section .text:

80002000 <vprintfmt>:
80002000:	ea010113          	addi	sp,sp,-352
80002004:	00002717          	auipc	a4,0x2
80002008:	1c070713          	addi	a4,a4,448 # 800041c4 <__stack_chk_guard>
8000200c:	14812c23          	sw	s0,344(sp)
80002010:	15212823          	sw	s2,336(sp)
80002014:	15312623          	sw	s3,332(sp)
80002018:	15412423          	sw	s4,328(sp)
8000201c:	14112e23          	sw	ra,348(sp)
80002020:	14912a23          	sw	s1,340(sp)
80002024:	15512223          	sw	s5,324(sp)
80002028:	15612023          	sw	s6,320(sp)
8000202c:	13712e23          	sw	s7,316(sp)
80002030:	13812c23          	sw	s8,312(sp)
80002034:	13912a23          	sw	s9,308(sp)
80002038:	13a12823          	sw	s10,304(sp)
8000203c:	13b12623          	sw	s11,300(sp)
80002040:	00050993          	mv	s3,a0
80002044:	00058913          	mv	s2,a1
80002048:	00060413          	mv	s0,a2
8000204c:	00d12623          	sw	a3,12(sp)
80002050:	00072783          	lw	a5,0(a4)
80002054:	10f12e23          	sw	a5,284(sp)
80002058:	00000793          	li	a5,0
8000205c:	02500a13          	li	s4,37
80002060:	0140006f          	j	80002074 <vprintfmt+0x74>
80002064:	06050463          	beqz	a0,800020cc <vprintfmt+0xcc>
80002068:	00090593          	mv	a1,s2
8000206c:	00140413          	addi	s0,s0,1
80002070:	000980e7          	jalr	s3
80002074:	00044503          	lbu	a0,0(s0)
80002078:	ff4516e3          	bne	a0,s4,80002064 <vprintfmt+0x64>
8000207c:	00144683          	lbu	a3,1(s0)
80002080:	00140a93          	addi	s5,s0,1
80002084:	02000793          	li	a5,32
80002088:	000a8713          	mv	a4,s5
8000208c:	00f12423          	sw	a5,8(sp)
80002090:	fff00493          	li	s1,-1
80002094:	fff00b13          	li	s6,-1
80002098:	00000613          	li	a2,0
8000209c:	fdd68793          	addi	a5,a3,-35
800020a0:	0ff7f793          	zext.b	a5,a5
800020a4:	05500593          	li	a1,85
800020a8:	00170413          	addi	s0,a4,1
800020ac:	08f5ec63          	bltu	a1,a5,80002144 <vprintfmt+0x144>
800020b0:	00002597          	auipc	a1,0x2
800020b4:	df058593          	addi	a1,a1,-528 # 80003ea0 <__errno+0x10c>
800020b8:	00279793          	slli	a5,a5,0x2
800020bc:	00b787b3          	add	a5,a5,a1
800020c0:	0007a783          	lw	a5,0(a5)
800020c4:	00b787b3          	add	a5,a5,a1
800020c8:	00078067          	jr	a5
800020cc:	00002797          	auipc	a5,0x2
800020d0:	0f878793          	addi	a5,a5,248 # 800041c4 <__stack_chk_guard>
800020d4:	11c12703          	lw	a4,284(sp)
800020d8:	0007a783          	lw	a5,0(a5)
800020dc:	00f747b3          	xor	a5,a4,a5
800020e0:	00000713          	li	a4,0
800020e4:	40079663          	bnez	a5,800024f0 <vprintfmt+0x4f0>
800020e8:	15c12083          	lw	ra,348(sp)
800020ec:	15812403          	lw	s0,344(sp)
800020f0:	15412483          	lw	s1,340(sp)
800020f4:	15012903          	lw	s2,336(sp)
800020f8:	14c12983          	lw	s3,332(sp)
800020fc:	14812a03          	lw	s4,328(sp)
80002100:	14412a83          	lw	s5,324(sp)
80002104:	14012b03          	lw	s6,320(sp)
80002108:	13c12b83          	lw	s7,316(sp)
8000210c:	13812c03          	lw	s8,312(sp)
80002110:	13412c83          	lw	s9,308(sp)
80002114:	13012d03          	lw	s10,304(sp)
80002118:	12c12d83          	lw	s11,300(sp)
8000211c:	16010113          	addi	sp,sp,352
80002120:	00008067          	ret
80002124:	00d12423          	sw	a3,8(sp)
80002128:	00174683          	lbu	a3,1(a4)
8000212c:	05500593          	li	a1,85
80002130:	00040713          	mv	a4,s0
80002134:	fdd68793          	addi	a5,a3,-35
80002138:	0ff7f793          	zext.b	a5,a5
8000213c:	00170413          	addi	s0,a4,1
80002140:	f6f5f8e3          	bgeu	a1,a5,800020b0 <vprintfmt+0xb0>
80002144:	00090593          	mv	a1,s2
80002148:	02500513          	li	a0,37
8000214c:	000980e7          	jalr	s3
80002150:	000a8413          	mv	s0,s5
80002154:	f21ff06f          	j	80002074 <vprintfmt+0x74>
80002158:	00174583          	lbu	a1,1(a4)
8000215c:	00900793          	li	a5,9
80002160:	fd068493          	addi	s1,a3,-48
80002164:	fd058713          	addi	a4,a1,-48
80002168:	00058693          	mv	a3,a1
8000216c:	36e7ee63          	bltu	a5,a4,800024e8 <vprintfmt+0x4e8>
80002170:	00040713          	mv	a4,s0
80002174:	00900513          	li	a0,9
80002178:	00249793          	slli	a5,s1,0x2
8000217c:	009787b3          	add	a5,a5,s1
80002180:	00170713          	addi	a4,a4,1
80002184:	00179793          	slli	a5,a5,0x1
80002188:	00b787b3          	add	a5,a5,a1
8000218c:	00074583          	lbu	a1,0(a4)
80002190:	fd078493          	addi	s1,a5,-48
80002194:	fd058793          	addi	a5,a1,-48
80002198:	00058693          	mv	a3,a1
8000219c:	fcf57ee3          	bgeu	a0,a5,80002178 <vprintfmt+0x178>
800021a0:	ee0b5ee3          	bgez	s6,8000209c <vprintfmt+0x9c>
800021a4:	00048b13          	mv	s6,s1
800021a8:	fff00493          	li	s1,-1
800021ac:	ef1ff06f          	j	8000209c <vprintfmt+0x9c>
800021b0:	fffb4793          	not	a5,s6
800021b4:	41f7d793          	srai	a5,a5,0x1f
800021b8:	00174683          	lbu	a3,1(a4)
800021bc:	00fb7b33          	and	s6,s6,a5
800021c0:	00040713          	mv	a4,s0
800021c4:	ed9ff06f          	j	8000209c <vprintfmt+0x9c>
800021c8:	00174683          	lbu	a3,1(a4)
800021cc:	00040713          	mv	a4,s0
800021d0:	ecdff06f          	j	8000209c <vprintfmt+0x9c>
800021d4:	00090593          	mv	a1,s2
800021d8:	02500513          	li	a0,37
800021dc:	000980e7          	jalr	s3
800021e0:	e95ff06f          	j	80002074 <vprintfmt+0x74>
800021e4:	00c12783          	lw	a5,12(sp)
800021e8:	00174683          	lbu	a3,1(a4)
800021ec:	00040713          	mv	a4,s0
800021f0:	0007a483          	lw	s1,0(a5)
800021f4:	00478793          	addi	a5,a5,4
800021f8:	00f12623          	sw	a5,12(sp)
800021fc:	fa5ff06f          	j	800021a0 <vprintfmt+0x1a0>
80002200:	00174683          	lbu	a3,1(a4)
80002204:	00160613          	addi	a2,a2,1
80002208:	00040713          	mv	a4,s0
8000220c:	e91ff06f          	j	8000209c <vprintfmt+0x9c>
80002210:	03000513          	li	a0,48
80002214:	00090593          	mv	a1,s2
80002218:	000980e7          	jalr	s3
8000221c:	00090593          	mv	a1,s2
80002220:	07800513          	li	a0,120
80002224:	000980e7          	jalr	s3
80002228:	00c12783          	lw	a5,12(sp)
8000222c:	01000a93          	li	s5,16
80002230:	00000c93          	li	s9,0
80002234:	00478713          	addi	a4,a5,4
80002238:	00c12783          	lw	a5,12(sp)
8000223c:	00000c13          	li	s8,0
80002240:	0007a483          	lw	s1,0(a5)
80002244:	00e12623          	sw	a4,12(sp)
80002248:	000a8613          	mv	a2,s5
8000224c:	00000693          	li	a3,0
80002250:	00048513          	mv	a0,s1
80002254:	000c0593          	mv	a1,s8
80002258:	400010ef          	jal	ra,80003658 <__umoddi3>
8000225c:	00a12e23          	sw	a0,28(sp)
80002260:	218c8e63          	beq	s9,s8,8000247c <vprintfmt+0x47c>
80002264:	02010b93          	addi	s7,sp,32
80002268:	00100d13          	li	s10,1
8000226c:	000a8613          	mv	a2,s5
80002270:	00000693          	li	a3,0
80002274:	00048513          	mv	a0,s1
80002278:	000c0593          	mv	a1,s8
8000227c:	7ad000ef          	jal	ra,80003228 <__udivdi3>
80002280:	000a8613          	mv	a2,s5
80002284:	00000693          	li	a3,0
80002288:	00050493          	mv	s1,a0
8000228c:	00058c13          	mv	s8,a1
80002290:	3c8010ef          	jal	ra,80003658 <__umoddi3>
80002294:	00aba023          	sw	a0,0(s7)
80002298:	000d0d93          	mv	s11,s10
8000229c:	004b8b93          	addi	s7,s7,4
800022a0:	001d0d13          	addi	s10,s10,1
800022a4:	fd8c94e3          	bne	s9,s8,8000226c <vprintfmt+0x26c>
800022a8:	fd54f2e3          	bgeu	s1,s5,8000226c <vprintfmt+0x26c>
800022ac:	fffb0a93          	addi	s5,s6,-1
800022b0:	fffd0493          	addi	s1,s10,-1
800022b4:	016d5c63          	bge	s10,s6,800022cc <vprintfmt+0x2cc>
800022b8:	00812503          	lw	a0,8(sp)
800022bc:	fffa8a93          	addi	s5,s5,-1
800022c0:	00090593          	mv	a1,s2
800022c4:	000980e7          	jalr	s3
800022c8:	fe9a98e3          	bne	s5,s1,800022b8 <vprintfmt+0x2b8>
800022cc:	002d9793          	slli	a5,s11,0x2
800022d0:	01c10713          	addi	a4,sp,28
800022d4:	00f70ab3          	add	s5,a4,a5
800022d8:	00900493          	li	s1,9
800022dc:	0080006f          	j	800022e4 <vprintfmt+0x2e4>
800022e0:	00078d93          	mv	s11,a5
800022e4:	000aa503          	lw	a0,0(s5)
800022e8:	00090593          	mv	a1,s2
800022ec:	ffca8a93          	addi	s5,s5,-4
800022f0:	00a4b7b3          	sltu	a5,s1,a0
800022f4:	40f007b3          	neg	a5,a5
800022f8:	0277f793          	andi	a5,a5,39
800022fc:	03078793          	addi	a5,a5,48
80002300:	00f50533          	add	a0,a0,a5
80002304:	000980e7          	jalr	s3
80002308:	fffd8793          	addi	a5,s11,-1
8000230c:	fc0d9ae3          	bnez	s11,800022e0 <vprintfmt+0x2e0>
80002310:	d65ff06f          	j	80002074 <vprintfmt+0x74>
80002314:	01000a93          	li	s5,16
80002318:	00000c93          	li	s9,0
8000231c:	00100793          	li	a5,1
80002320:	12c7ce63          	blt	a5,a2,8000245c <vprintfmt+0x45c>
80002324:	00c12783          	lw	a5,12(sp)
80002328:	00478713          	addi	a4,a5,4
8000232c:	f0dff06f          	j	80002238 <vprintfmt+0x238>
80002330:	00c12783          	lw	a5,12(sp)
80002334:	00090593          	mv	a1,s2
80002338:	0007a503          	lw	a0,0(a5)
8000233c:	00478b93          	addi	s7,a5,4
80002340:	000980e7          	jalr	s3
80002344:	01712623          	sw	s7,12(sp)
80002348:	d2dff06f          	j	80002074 <vprintfmt+0x74>
8000234c:	00c12783          	lw	a5,12(sp)
80002350:	0007aa83          	lw	s5,0(a5)
80002354:	00478b93          	addi	s7,a5,4
80002358:	160a8663          	beqz	s5,800024c4 <vprintfmt+0x4c4>
8000235c:	0b605463          	blez	s6,80002404 <vprintfmt+0x404>
80002360:	00812703          	lw	a4,8(sp)
80002364:	02d00793          	li	a5,45
80002368:	04f71e63          	bne	a4,a5,800023c4 <vprintfmt+0x3c4>
8000236c:	000ac503          	lbu	a0,0(s5)
80002370:	02050863          	beqz	a0,800023a0 <vprintfmt+0x3a0>
80002374:	fff00c13          	li	s8,-1
80002378:	0004c663          	bltz	s1,80002384 <vprintfmt+0x384>
8000237c:	fff48493          	addi	s1,s1,-1
80002380:	01848e63          	beq	s1,s8,8000239c <vprintfmt+0x39c>
80002384:	00090593          	mv	a1,s2
80002388:	001a8a93          	addi	s5,s5,1
8000238c:	000980e7          	jalr	s3
80002390:	000ac503          	lbu	a0,0(s5)
80002394:	fffb0b13          	addi	s6,s6,-1
80002398:	fe0510e3          	bnez	a0,80002378 <vprintfmt+0x378>
8000239c:	fb6054e3          	blez	s6,80002344 <vprintfmt+0x344>
800023a0:	fffb0b13          	addi	s6,s6,-1
800023a4:	00090593          	mv	a1,s2
800023a8:	02000513          	li	a0,32
800023ac:	000980e7          	jalr	s3
800023b0:	fe0b18e3          	bnez	s6,800023a0 <vprintfmt+0x3a0>
800023b4:	01712623          	sw	s7,12(sp)
800023b8:	cbdff06f          	j	80002074 <vprintfmt+0x74>
800023bc:	00002a97          	auipc	s5,0x2
800023c0:	9e0a8a93          	addi	s5,s5,-1568 # 80003d9c <__errno+0x8>
800023c4:	000a8793          	mv	a5,s5
800023c8:	009a86b3          	add	a3,s5,s1
800023cc:	00049863          	bnez	s1,800023dc <vprintfmt+0x3dc>
800023d0:	0200006f          	j	800023f0 <vprintfmt+0x3f0>
800023d4:	00178793          	addi	a5,a5,1
800023d8:	00d78663          	beq	a5,a3,800023e4 <vprintfmt+0x3e4>
800023dc:	0007c703          	lbu	a4,0(a5)
800023e0:	fe071ae3          	bnez	a4,800023d4 <vprintfmt+0x3d4>
800023e4:	415787b3          	sub	a5,a5,s5
800023e8:	40fb0b33          	sub	s6,s6,a5
800023ec:	01605c63          	blez	s6,80002404 <vprintfmt+0x404>
800023f0:	00812503          	lw	a0,8(sp)
800023f4:	fffb0b13          	addi	s6,s6,-1
800023f8:	00090593          	mv	a1,s2
800023fc:	000980e7          	jalr	s3
80002400:	fe0b18e3          	bnez	s6,800023f0 <vprintfmt+0x3f0>
80002404:	000ac503          	lbu	a0,0(s5)
80002408:	f2050ee3          	beqz	a0,80002344 <vprintfmt+0x344>
8000240c:	fff00c13          	li	s8,-1
80002410:	f69ff06f          	j	80002378 <vprintfmt+0x378>
80002414:	00100793          	li	a5,1
80002418:	06c7ca63          	blt	a5,a2,8000248c <vprintfmt+0x48c>
8000241c:	00c12783          	lw	a5,12(sp)
80002420:	0007a483          	lw	s1,0(a5)
80002424:	00478793          	addi	a5,a5,4
80002428:	00f12623          	sw	a5,12(sp)
8000242c:	41f4dc13          	srai	s8,s1,0x1f
80002430:	020c5063          	bgez	s8,80002450 <vprintfmt+0x450>
80002434:	00090593          	mv	a1,s2
80002438:	02d00513          	li	a0,45
8000243c:	000980e7          	jalr	s3
80002440:	00903733          	snez	a4,s1
80002444:	418007b3          	neg	a5,s8
80002448:	409004b3          	neg	s1,s1
8000244c:	40e78c33          	sub	s8,a5,a4
80002450:	00a00a93          	li	s5,10
80002454:	00000c93          	li	s9,0
80002458:	df1ff06f          	j	80002248 <vprintfmt+0x248>
8000245c:	00c12783          	lw	a5,12(sp)
80002460:	00778b93          	addi	s7,a5,7
80002464:	ff8bfb93          	andi	s7,s7,-8
80002468:	008b8793          	addi	a5,s7,8
8000246c:	000ba483          	lw	s1,0(s7)
80002470:	004bac03          	lw	s8,4(s7)
80002474:	00f12623          	sw	a5,12(sp)
80002478:	dd1ff06f          	j	80002248 <vprintfmt+0x248>
8000247c:	df54f4e3          	bgeu	s1,s5,80002264 <vprintfmt+0x264>
80002480:	00000d93          	li	s11,0
80002484:	00100d13          	li	s10,1
80002488:	e25ff06f          	j	800022ac <vprintfmt+0x2ac>
8000248c:	00c12783          	lw	a5,12(sp)
80002490:	00778b93          	addi	s7,a5,7
80002494:	ff8bfb93          	andi	s7,s7,-8
80002498:	008b8793          	addi	a5,s7,8
8000249c:	000ba483          	lw	s1,0(s7)
800024a0:	004bac03          	lw	s8,4(s7)
800024a4:	00f12623          	sw	a5,12(sp)
800024a8:	f89ff06f          	j	80002430 <vprintfmt+0x430>
800024ac:	00a00a93          	li	s5,10
800024b0:	00000c93          	li	s9,0
800024b4:	e69ff06f          	j	8000231c <vprintfmt+0x31c>
800024b8:	00800a93          	li	s5,8
800024bc:	00000c93          	li	s9,0
800024c0:	e5dff06f          	j	8000231c <vprintfmt+0x31c>
800024c4:	01605863          	blez	s6,800024d4 <vprintfmt+0x4d4>
800024c8:	00812703          	lw	a4,8(sp)
800024cc:	02d00793          	li	a5,45
800024d0:	eef716e3          	bne	a4,a5,800023bc <vprintfmt+0x3bc>
800024d4:	00002a97          	auipc	s5,0x2
800024d8:	8c8a8a93          	addi	s5,s5,-1848 # 80003d9c <__errno+0x8>
800024dc:	02800513          	li	a0,40
800024e0:	fff00c13          	li	s8,-1
800024e4:	e95ff06f          	j	80002378 <vprintfmt+0x378>
800024e8:	00040713          	mv	a4,s0
800024ec:	cb5ff06f          	j	800021a0 <vprintfmt+0x1a0>
800024f0:	650010ef          	jal	ra,80003b40 <__stack_chk_fail>

800024f4 <sprintf_putch.0>:
800024f4:	0005a783          	lw	a5,0(a1)
800024f8:	fe010113          	addi	sp,sp,-32
800024fc:	00002717          	auipc	a4,0x2
80002500:	cc870713          	addi	a4,a4,-824 # 800041c4 <__stack_chk_guard>
80002504:	00112e23          	sw	ra,28(sp)
80002508:	00072683          	lw	a3,0(a4)
8000250c:	00d12623          	sw	a3,12(sp)
80002510:	00000693          	li	a3,0
80002514:	00a78023          	sb	a0,0(a5)
80002518:	0005a783          	lw	a5,0(a1)
8000251c:	00178793          	addi	a5,a5,1
80002520:	00f5a023          	sw	a5,0(a1)
80002524:	00c12683          	lw	a3,12(sp)
80002528:	00072783          	lw	a5,0(a4)
8000252c:	00f6c7b3          	xor	a5,a3,a5
80002530:	00000693          	li	a3,0
80002534:	00079863          	bnez	a5,80002544 <sprintf_putch.0+0x50>
80002538:	01c12083          	lw	ra,28(sp)
8000253c:	02010113          	addi	sp,sp,32
80002540:	00008067          	ret
80002544:	5fc010ef          	jal	ra,80003b40 <__stack_chk_fail>

80002548 <putchar>:
80002548:	fe010113          	addi	sp,sp,-32
8000254c:	00812c23          	sw	s0,24(sp)
80002550:	00002417          	auipc	s0,0x2
80002554:	c7440413          	addi	s0,s0,-908 # 800041c4 <__stack_chk_guard>
80002558:	00042783          	lw	a5,0(s0)
8000255c:	00f12623          	sw	a5,12(sp)
80002560:	00000793          	li	a5,0
80002564:	0ff57513          	zext.b	a0,a0
80002568:	00112e23          	sw	ra,28(sp)
8000256c:	1e1000ef          	jal	ra,80002f4c <uartputchar>
80002570:	00c12703          	lw	a4,12(sp)
80002574:	00042783          	lw	a5,0(s0)
80002578:	00f747b3          	xor	a5,a4,a5
8000257c:	00000713          	li	a4,0
80002580:	00079c63          	bnez	a5,80002598 <putchar+0x50>
80002584:	01c12083          	lw	ra,28(sp)
80002588:	01812403          	lw	s0,24(sp)
8000258c:	00000513          	li	a0,0
80002590:	02010113          	addi	sp,sp,32
80002594:	00008067          	ret
80002598:	5a8010ef          	jal	ra,80003b40 <__stack_chk_fail>

8000259c <setStats>:
8000259c:	fe010113          	addi	sp,sp,-32
800025a0:	00002717          	auipc	a4,0x2
800025a4:	c2470713          	addi	a4,a4,-988 # 800041c4 <__stack_chk_guard>
800025a8:	00112e23          	sw	ra,28(sp)
800025ac:	00072783          	lw	a5,0(a4)
800025b0:	00f12623          	sw	a5,12(sp)
800025b4:	00000793          	li	a5,0
800025b8:	b00026f3          	csrr	a3,mcycle
800025bc:	00002797          	auipc	a5,0x2
800025c0:	be878793          	addi	a5,a5,-1048 # 800041a4 <counters>
800025c4:	02050863          	beqz	a0,800025f4 <setStats+0x58>
800025c8:	00d7a023          	sw	a3,0(a5)
800025cc:	b02026f3          	csrr	a3,minstret
800025d0:	00d7a223          	sw	a3,4(a5)
800025d4:	00c12683          	lw	a3,12(sp)
800025d8:	00072783          	lw	a5,0(a4)
800025dc:	00f6c7b3          	xor	a5,a3,a5
800025e0:	00000693          	li	a3,0
800025e4:	04079663          	bnez	a5,80002630 <setStats+0x94>
800025e8:	01c12083          	lw	ra,28(sp)
800025ec:	02010113          	addi	sp,sp,32
800025f0:	00008067          	ret
800025f4:	0007a583          	lw	a1,0(a5)
800025f8:	00002617          	auipc	a2,0x2
800025fc:	ba460613          	addi	a2,a2,-1116 # 8000419c <counter_names>
80002600:	40b686b3          	sub	a3,a3,a1
80002604:	00001597          	auipc	a1,0x1
80002608:	7a058593          	addi	a1,a1,1952 # 80003da4 <__errno+0x10>
8000260c:	00b62023          	sw	a1,0(a2)
80002610:	00d7a023          	sw	a3,0(a5)
80002614:	b02026f3          	csrr	a3,minstret
80002618:	0047a583          	lw	a1,4(a5)
8000261c:	00001517          	auipc	a0,0x1
80002620:	79050513          	addi	a0,a0,1936 # 80003dac <__errno+0x18>
80002624:	00a62223          	sw	a0,4(a2)
80002628:	40b686b3          	sub	a3,a3,a1
8000262c:	fa5ff06f          	j	800025d0 <setStats+0x34>
80002630:	510010ef          	jal	ra,80003b40 <__stack_chk_fail>

80002634 <tohost_exit>:
80002634:	00151693          	slli	a3,a0,0x1
80002638:	0016e713          	ori	a4,a3,1
8000263c:	ff010113          	addi	sp,sp,-16
80002640:	00002697          	auipc	a3,0x2
80002644:	b8468693          	addi	a3,a3,-1148 # 800041c4 <__stack_chk_guard>
80002648:	0006a603          	lw	a2,0(a3)
8000264c:	00c12623          	sw	a2,12(sp)
80002650:	00000613          	li	a2,0
80002654:	fffff697          	auipc	a3,0xfffff
80002658:	9ac68693          	addi	a3,a3,-1620 # 80001000 <tohost>
8000265c:	00000793          	li	a5,0
80002660:	00e6a023          	sw	a4,0(a3)
80002664:	00f6a223          	sw	a5,4(a3)
80002668:	0000006f          	j	80002668 <tohost_exit+0x34>

8000266c <handle_trap>:
8000266c:	00002797          	auipc	a5,0x2
80002670:	b5878793          	addi	a5,a5,-1192 # 800041c4 <__stack_chk_guard>
80002674:	ff010113          	addi	sp,sp,-16
80002678:	00001637          	lui	a2,0x1
8000267c:	0007a703          	lw	a4,0(a5)
80002680:	00e12623          	sw	a4,12(sp)
80002684:	00000713          	li	a4,0
80002688:	a7360613          	addi	a2,a2,-1421 # a73 <_start-0x7ffff58d>
8000268c:	fffff797          	auipc	a5,0xfffff
80002690:	97478793          	addi	a5,a5,-1676 # 80001000 <tohost>
80002694:	00000693          	li	a3,0
80002698:	00c7a023          	sw	a2,0(a5)
8000269c:	00d7a223          	sw	a3,4(a5)
800026a0:	0000006f          	j	800026a0 <handle_trap+0x34>

800026a4 <exit>:
800026a4:	fe010113          	addi	sp,sp,-32
800026a8:	00002797          	auipc	a5,0x2
800026ac:	b1c78793          	addi	a5,a5,-1252 # 800041c4 <__stack_chk_guard>
800026b0:	0007a703          	lw	a4,0(a5)
800026b4:	00e12623          	sw	a4,12(sp)
800026b8:	00000713          	li	a4,0
800026bc:	00112e23          	sw	ra,28(sp)
800026c0:	f75ff0ef          	jal	ra,80002634 <tohost_exit>

800026c4 <abort>:
800026c4:	00002797          	auipc	a5,0x2
800026c8:	b0078793          	addi	a5,a5,-1280 # 800041c4 <__stack_chk_guard>
800026cc:	ff010113          	addi	sp,sp,-16
800026d0:	0007a703          	lw	a4,0(a5)
800026d4:	00e12623          	sw	a4,12(sp)
800026d8:	00000713          	li	a4,0
800026dc:	10d00613          	li	a2,269
800026e0:	fffff797          	auipc	a5,0xfffff
800026e4:	92078793          	addi	a5,a5,-1760 # 80001000 <tohost>
800026e8:	00000693          	li	a3,0
800026ec:	00c7a023          	sw	a2,0(a5)
800026f0:	00d7a223          	sw	a3,4(a5)
800026f4:	0000006f          	j	800026f4 <abort+0x30>

800026f8 <printstr>:
800026f8:	00054783          	lbu	a5,0(a0)
800026fc:	f6010113          	addi	sp,sp,-160
80002700:	00002597          	auipc	a1,0x2
80002704:	ac458593          	addi	a1,a1,-1340 # 800041c4 <__stack_chk_guard>
80002708:	03f10613          	addi	a2,sp,63
8000270c:	08112e23          	sw	ra,156(sp)
80002710:	0005a703          	lw	a4,0(a1)
80002714:	08e12623          	sw	a4,140(sp)
80002718:	00000713          	li	a4,0
8000271c:	00050813          	mv	a6,a0
80002720:	fc067613          	andi	a2,a2,-64
80002724:	00000893          	li	a7,0
80002728:	0a078c63          	beqz	a5,800027e0 <printstr+0xe8>
8000272c:	00050793          	mv	a5,a0
80002730:	0017c703          	lbu	a4,1(a5)
80002734:	00178793          	addi	a5,a5,1
80002738:	fe071ce3          	bnez	a4,80002730 <printstr+0x38>
8000273c:	40a78333          	sub	t1,a5,a0
80002740:	00000393          	li	t2,0
80002744:	04000713          	li	a4,64
80002748:	00e62023          	sw	a4,0(a2)
8000274c:	00000793          	li	a5,0
80002750:	00f62223          	sw	a5,4(a2)
80002754:	00100713          	li	a4,1
80002758:	00e62423          	sw	a4,8(a2)
8000275c:	00000793          	li	a5,0
80002760:	00f62623          	sw	a5,12(a2)
80002764:	01062823          	sw	a6,16(a2)
80002768:	01162a23          	sw	a7,20(a2)
8000276c:	00662c23          	sw	t1,24(a2)
80002770:	00762e23          	sw	t2,28(a2)
80002774:	0ff0000f          	fence
80002778:	fffff697          	auipc	a3,0xfffff
8000277c:	88868693          	addi	a3,a3,-1912 # 80001000 <tohost>
80002780:	00c6a023          	sw	a2,0(a3)
80002784:	00000793          	li	a5,0
80002788:	00f6a223          	sw	a5,4(a3)
8000278c:	fffff697          	auipc	a3,0xfffff
80002790:	8b468693          	addi	a3,a3,-1868 # 80001040 <fromhost>
80002794:	0006a703          	lw	a4,0(a3)
80002798:	0046a783          	lw	a5,4(a3)
8000279c:	00f76733          	or	a4,a4,a5
800027a0:	fe070ae3          	beqz	a4,80002794 <printstr+0x9c>
800027a4:	00000793          	li	a5,0
800027a8:	00f6a023          	sw	a5,0(a3)
800027ac:	00000813          	li	a6,0
800027b0:	0106a223          	sw	a6,4(a3)
800027b4:	0ff0000f          	fence
800027b8:	00062703          	lw	a4,0(a2)
800027bc:	00462783          	lw	a5,4(a2)
800027c0:	08c12703          	lw	a4,140(sp)
800027c4:	0005a783          	lw	a5,0(a1)
800027c8:	00f747b3          	xor	a5,a4,a5
800027cc:	00000713          	li	a4,0
800027d0:	00079e63          	bnez	a5,800027ec <printstr+0xf4>
800027d4:	09c12083          	lw	ra,156(sp)
800027d8:	0a010113          	addi	sp,sp,160
800027dc:	00008067          	ret
800027e0:	00000313          	li	t1,0
800027e4:	00000393          	li	t2,0
800027e8:	f5dff06f          	j	80002744 <printstr+0x4c>
800027ec:	354010ef          	jal	ra,80003b40 <__stack_chk_fail>

800027f0 <thread_entry>:
800027f0:	fe010113          	addi	sp,sp,-32
800027f4:	00002797          	auipc	a5,0x2
800027f8:	9d078793          	addi	a5,a5,-1584 # 800041c4 <__stack_chk_guard>
800027fc:	00112e23          	sw	ra,28(sp)
80002800:	0007a703          	lw	a4,0(a5)
80002804:	00e12623          	sw	a4,12(sp)
80002808:	00000713          	li	a4,0
8000280c:	00051063          	bnez	a0,8000280c <thread_entry+0x1c>
80002810:	00c12703          	lw	a4,12(sp)
80002814:	0007a783          	lw	a5,0(a5)
80002818:	00f747b3          	xor	a5,a4,a5
8000281c:	00000713          	li	a4,0
80002820:	00079863          	bnez	a5,80002830 <thread_entry+0x40>
80002824:	01c12083          	lw	ra,28(sp)
80002828:	02010113          	addi	sp,sp,32
8000282c:	00008067          	ret
80002830:	310010ef          	jal	ra,80003b40 <__stack_chk_fail>

80002834 <printhex>:
80002834:	fd010113          	addi	sp,sp,-48
80002838:	02812423          	sw	s0,40(sp)
8000283c:	00002417          	auipc	s0,0x2
80002840:	98840413          	addi	s0,s0,-1656 # 800041c4 <__stack_chk_guard>
80002844:	00050713          	mv	a4,a0
80002848:	02112623          	sw	ra,44(sp)
8000284c:	00042783          	lw	a5,0(s0)
80002850:	00f12e23          	sw	a5,28(sp)
80002854:	00000793          	li	a5,0
80002858:	00810513          	addi	a0,sp,8
8000285c:	01710693          	addi	a3,sp,23
80002860:	00900813          	li	a6,9
80002864:	0080006f          	j	8000286c <printhex+0x38>
80002868:	00078693          	mv	a3,a5
8000286c:	00f77793          	andi	a5,a4,15
80002870:	00f837b3          	sltu	a5,a6,a5
80002874:	40f007b3          	neg	a5,a5
80002878:	0277f793          	andi	a5,a5,39
8000287c:	00f77613          	andi	a2,a4,15
80002880:	03078793          	addi	a5,a5,48
80002884:	00f607b3          	add	a5,a2,a5
80002888:	00475713          	srli	a4,a4,0x4
8000288c:	01c59613          	slli	a2,a1,0x1c
80002890:	00f68023          	sb	a5,0(a3)
80002894:	00e66733          	or	a4,a2,a4
80002898:	0045d593          	srli	a1,a1,0x4
8000289c:	fff68793          	addi	a5,a3,-1
800028a0:	fcd514e3          	bne	a0,a3,80002868 <printhex+0x34>
800028a4:	00010c23          	sb	zero,24(sp)
800028a8:	e51ff0ef          	jal	ra,800026f8 <printstr>
800028ac:	01c12703          	lw	a4,28(sp)
800028b0:	00042783          	lw	a5,0(s0)
800028b4:	00f747b3          	xor	a5,a4,a5
800028b8:	00000713          	li	a4,0
800028bc:	00079a63          	bnez	a5,800028d0 <printhex+0x9c>
800028c0:	02c12083          	lw	ra,44(sp)
800028c4:	02812403          	lw	s0,40(sp)
800028c8:	03010113          	addi	sp,sp,48
800028cc:	00008067          	ret
800028d0:	270010ef          	jal	ra,80003b40 <__stack_chk_fail>

800028d4 <printf>:
800028d4:	fc010113          	addi	sp,sp,-64
800028d8:	02410313          	addi	t1,sp,36
800028dc:	02b12223          	sw	a1,36(sp)
800028e0:	02c12423          	sw	a2,40(sp)
800028e4:	02d12623          	sw	a3,44(sp)
800028e8:	02e12823          	sw	a4,48(sp)
800028ec:	00812c23          	sw	s0,24(sp)
800028f0:	02f12a23          	sw	a5,52(sp)
800028f4:	00002417          	auipc	s0,0x2
800028f8:	8d040413          	addi	s0,s0,-1840 # 800041c4 <__stack_chk_guard>
800028fc:	03012c23          	sw	a6,56(sp)
80002900:	03112e23          	sw	a7,60(sp)
80002904:	00050613          	mv	a2,a0
80002908:	00042783          	lw	a5,0(s0)
8000290c:	00f12623          	sw	a5,12(sp)
80002910:	00000793          	li	a5,0
80002914:	00030693          	mv	a3,t1
80002918:	00000593          	li	a1,0
8000291c:	00000517          	auipc	a0,0x0
80002920:	c2c50513          	addi	a0,a0,-980 # 80002548 <putchar>
80002924:	00112e23          	sw	ra,28(sp)
80002928:	00612423          	sw	t1,8(sp)
8000292c:	ed4ff0ef          	jal	ra,80002000 <vprintfmt>
80002930:	00c12703          	lw	a4,12(sp)
80002934:	00042783          	lw	a5,0(s0)
80002938:	00f747b3          	xor	a5,a4,a5
8000293c:	00000713          	li	a4,0
80002940:	00079c63          	bnez	a5,80002958 <printf+0x84>
80002944:	01c12083          	lw	ra,28(sp)
80002948:	01812403          	lw	s0,24(sp)
8000294c:	00000513          	li	a0,0
80002950:	04010113          	addi	sp,sp,64
80002954:	00008067          	ret
80002958:	1e8010ef          	jal	ra,80003b40 <__stack_chk_fail>

8000295c <sprintf>:
8000295c:	fb010113          	addi	sp,sp,-80
80002960:	03810313          	addi	t1,sp,56
80002964:	02c12c23          	sw	a2,56(sp)
80002968:	02d12e23          	sw	a3,60(sp)
8000296c:	04e12023          	sw	a4,64(sp)
80002970:	02912223          	sw	s1,36(sp)
80002974:	04f12223          	sw	a5,68(sp)
80002978:	00002497          	auipc	s1,0x2
8000297c:	84c48493          	addi	s1,s1,-1972 # 800041c4 <__stack_chk_guard>
80002980:	05012423          	sw	a6,72(sp)
80002984:	05112623          	sw	a7,76(sp)
80002988:	02812423          	sw	s0,40(sp)
8000298c:	00a12623          	sw	a0,12(sp)
80002990:	00050413          	mv	s0,a0
80002994:	00058613          	mv	a2,a1
80002998:	00000517          	auipc	a0,0x0
8000299c:	b5c50513          	addi	a0,a0,-1188 # 800024f4 <sprintf_putch.0>
800029a0:	0004a783          	lw	a5,0(s1)
800029a4:	00f12e23          	sw	a5,28(sp)
800029a8:	00000793          	li	a5,0
800029ac:	00030693          	mv	a3,t1
800029b0:	00c10593          	addi	a1,sp,12
800029b4:	02112623          	sw	ra,44(sp)
800029b8:	00612c23          	sw	t1,24(sp)
800029bc:	e44ff0ef          	jal	ra,80002000 <vprintfmt>
800029c0:	00c12783          	lw	a5,12(sp)
800029c4:	00078023          	sb	zero,0(a5)
800029c8:	00c12503          	lw	a0,12(sp)
800029cc:	01c12703          	lw	a4,28(sp)
800029d0:	0004a783          	lw	a5,0(s1)
800029d4:	00f747b3          	xor	a5,a4,a5
800029d8:	00000713          	li	a4,0
800029dc:	40850533          	sub	a0,a0,s0
800029e0:	00079c63          	bnez	a5,800029f8 <sprintf+0x9c>
800029e4:	02c12083          	lw	ra,44(sp)
800029e8:	02812403          	lw	s0,40(sp)
800029ec:	02412483          	lw	s1,36(sp)
800029f0:	05010113          	addi	sp,sp,80
800029f4:	00008067          	ret
800029f8:	148010ef          	jal	ra,80003b40 <__stack_chk_fail>

800029fc <memcpy>:
800029fc:	00b567b3          	or	a5,a0,a1
80002a00:	fe010113          	addi	sp,sp,-32
80002a04:	00001817          	auipc	a6,0x1
80002a08:	7c080813          	addi	a6,a6,1984 # 800041c4 <__stack_chk_guard>
80002a0c:	00c7e7b3          	or	a5,a5,a2
80002a10:	00112e23          	sw	ra,28(sp)
80002a14:	00082703          	lw	a4,0(a6)
80002a18:	00e12623          	sw	a4,12(sp)
80002a1c:	00000713          	li	a4,0
80002a20:	0037f793          	andi	a5,a5,3
80002a24:	00c506b3          	add	a3,a0,a2
80002a28:	04078263          	beqz	a5,80002a6c <memcpy+0x70>
80002a2c:	00c58633          	add	a2,a1,a2
80002a30:	00050793          	mv	a5,a0
80002a34:	00d57c63          	bgeu	a0,a3,80002a4c <memcpy+0x50>
80002a38:	0005c703          	lbu	a4,0(a1)
80002a3c:	00158593          	addi	a1,a1,1
80002a40:	00178793          	addi	a5,a5,1
80002a44:	fee78fa3          	sb	a4,-1(a5)
80002a48:	feb618e3          	bne	a2,a1,80002a38 <memcpy+0x3c>
80002a4c:	00c12703          	lw	a4,12(sp)
80002a50:	00082783          	lw	a5,0(a6)
80002a54:	00f747b3          	xor	a5,a4,a5
80002a58:	00000713          	li	a4,0
80002a5c:	02079863          	bnez	a5,80002a8c <memcpy+0x90>
80002a60:	01c12083          	lw	ra,28(sp)
80002a64:	02010113          	addi	sp,sp,32
80002a68:	00008067          	ret
80002a6c:	fed570e3          	bgeu	a0,a3,80002a4c <memcpy+0x50>
80002a70:	00050793          	mv	a5,a0
80002a74:	0005a703          	lw	a4,0(a1)
80002a78:	00478793          	addi	a5,a5,4
80002a7c:	00458593          	addi	a1,a1,4
80002a80:	fee7ae23          	sw	a4,-4(a5)
80002a84:	fed7e8e3          	bltu	a5,a3,80002a74 <memcpy+0x78>
80002a88:	fc5ff06f          	j	80002a4c <memcpy+0x50>
80002a8c:	0b4010ef          	jal	ra,80003b40 <__stack_chk_fail>

80002a90 <memset>:
80002a90:	fe010113          	addi	sp,sp,-32
80002a94:	00c567b3          	or	a5,a0,a2
80002a98:	00001697          	auipc	a3,0x1
80002a9c:	72c68693          	addi	a3,a3,1836 # 800041c4 <__stack_chk_guard>
80002aa0:	00112e23          	sw	ra,28(sp)
80002aa4:	0006a703          	lw	a4,0(a3)
80002aa8:	00e12623          	sw	a4,12(sp)
80002aac:	00000713          	li	a4,0
80002ab0:	0037f793          	andi	a5,a5,3
80002ab4:	00c50633          	add	a2,a0,a2
80002ab8:	02078e63          	beqz	a5,80002af4 <memset+0x64>
80002abc:	0ff5f593          	zext.b	a1,a1
80002ac0:	00050793          	mv	a5,a0
80002ac4:	00c57863          	bgeu	a0,a2,80002ad4 <memset+0x44>
80002ac8:	00178793          	addi	a5,a5,1
80002acc:	feb78fa3          	sb	a1,-1(a5)
80002ad0:	fec79ce3          	bne	a5,a2,80002ac8 <memset+0x38>
80002ad4:	00c12703          	lw	a4,12(sp)
80002ad8:	0006a783          	lw	a5,0(a3)
80002adc:	00f747b3          	xor	a5,a4,a5
80002ae0:	00000713          	li	a4,0
80002ae4:	02079e63          	bnez	a5,80002b20 <memset+0x90>
80002ae8:	01c12083          	lw	ra,28(sp)
80002aec:	02010113          	addi	sp,sp,32
80002af0:	00008067          	ret
80002af4:	0ff5f593          	zext.b	a1,a1
80002af8:	00859713          	slli	a4,a1,0x8
80002afc:	00b70733          	add	a4,a4,a1
80002b00:	01071793          	slli	a5,a4,0x10
80002b04:	00f70733          	add	a4,a4,a5
80002b08:	fcc576e3          	bgeu	a0,a2,80002ad4 <memset+0x44>
80002b0c:	00050793          	mv	a5,a0
80002b10:	00478793          	addi	a5,a5,4
80002b14:	fee7ae23          	sw	a4,-4(a5)
80002b18:	fec7ece3          	bltu	a5,a2,80002b10 <memset+0x80>
80002b1c:	fb9ff06f          	j	80002ad4 <memset+0x44>
80002b20:	020010ef          	jal	ra,80003b40 <__stack_chk_fail>

80002b24 <_init>:
80002b24:	f5010113          	addi	sp,sp,-176
80002b28:	84418793          	addi	a5,gp,-1980 # 800041cc <_end>
80002b2c:	09412c23          	sw	s4,152(sp)
80002b30:	84418a13          	addi	s4,gp,-1980 # 800041cc <_end>
80002b34:	0b212023          	sw	s2,160(sp)
80002b38:	09312e23          	sw	s3,156(sp)
80002b3c:	00058913          	mv	s2,a1
80002b40:	40fa09b3          	sub	s3,s4,a5
80002b44:	00078593          	mv	a1,a5
80002b48:	00001797          	auipc	a5,0x1
80002b4c:	67c78793          	addi	a5,a5,1660 # 800041c4 <__stack_chk_guard>
80002b50:	0007a703          	lw	a4,0(a5)
80002b54:	08e12623          	sw	a4,140(sp)
80002b58:	00000713          	li	a4,0
80002b5c:	0a912223          	sw	s1,164(sp)
80002b60:	00098613          	mv	a2,s3
80002b64:	00050493          	mv	s1,a0
80002b68:	00020513          	mv	a0,tp
80002b6c:	0a112623          	sw	ra,172(sp)
80002b70:	0a812423          	sw	s0,168(sp)
80002b74:	09512a23          	sw	s5,148(sp)
80002b78:	00020a93          	mv	s5,tp
80002b7c:	e81ff0ef          	jal	ra,800029fc <memcpy>
80002b80:	84418613          	addi	a2,gp,-1980 # 800041cc <_end>
80002b84:	41460633          	sub	a2,a2,s4
80002b88:	00000593          	li	a1,0
80002b8c:	013a8533          	add	a0,s5,s3
80002b90:	f01ff0ef          	jal	ra,80002a90 <memset>
80002b94:	00090593          	mv	a1,s2
80002b98:	00048513          	mv	a0,s1
80002b9c:	c55ff0ef          	jal	ra,800027f0 <thread_entry>
80002ba0:	00000593          	li	a1,0
80002ba4:	00000513          	li	a0,0
80002ba8:	695000ef          	jal	ra,80003a3c <main>
80002bac:	00001917          	auipc	s2,0x1
80002bb0:	5f890913          	addi	s2,s2,1528 # 800041a4 <counters>
80002bb4:	00092683          	lw	a3,0(s2)
80002bb8:	03f10413          	addi	s0,sp,63
80002bbc:	fc047413          	andi	s0,s0,-64
80002bc0:	00050493          	mv	s1,a0
80002bc4:	04069463          	bnez	a3,80002c0c <_init+0xe8>
80002bc8:	00492683          	lw	a3,4(s2)
80002bcc:	00069663          	bnez	a3,80002bd8 <_init+0xb4>
80002bd0:	00048513          	mv	a0,s1
80002bd4:	a61ff0ef          	jal	ra,80002634 <tohost_exit>
80002bd8:	00040913          	mv	s2,s0
80002bdc:	00001997          	auipc	s3,0x1
80002be0:	5c098993          	addi	s3,s3,1472 # 8000419c <counter_names>
80002be4:	0049a603          	lw	a2,4(s3)
80002be8:	00090513          	mv	a0,s2
80002bec:	00001597          	auipc	a1,0x1
80002bf0:	1e458593          	addi	a1,a1,484 # 80003dd0 <__errno+0x3c>
80002bf4:	d69ff0ef          	jal	ra,8000295c <sprintf>
80002bf8:	00a90933          	add	s2,s2,a0
80002bfc:	fd240ae3          	beq	s0,s2,80002bd0 <_init+0xac>
80002c00:	00040513          	mv	a0,s0
80002c04:	af5ff0ef          	jal	ra,800026f8 <printstr>
80002c08:	fc9ff06f          	j	80002bd0 <_init+0xac>
80002c0c:	00001997          	auipc	s3,0x1
80002c10:	59098993          	addi	s3,s3,1424 # 8000419c <counter_names>
80002c14:	0009a603          	lw	a2,0(s3)
80002c18:	00001597          	auipc	a1,0x1
80002c1c:	1b858593          	addi	a1,a1,440 # 80003dd0 <__errno+0x3c>
80002c20:	00040513          	mv	a0,s0
80002c24:	d39ff0ef          	jal	ra,8000295c <sprintf>
80002c28:	00492683          	lw	a3,4(s2)
80002c2c:	00a40933          	add	s2,s0,a0
80002c30:	fc0686e3          	beqz	a3,80002bfc <_init+0xd8>
80002c34:	fb1ff06f          	j	80002be4 <_init+0xc0>

80002c38 <strlen>:
80002c38:	fe010113          	addi	sp,sp,-32
80002c3c:	00112e23          	sw	ra,28(sp)
80002c40:	00054783          	lbu	a5,0(a0)
80002c44:	00001697          	auipc	a3,0x1
80002c48:	58068693          	addi	a3,a3,1408 # 800041c4 <__stack_chk_guard>
80002c4c:	0006a703          	lw	a4,0(a3)
80002c50:	00e12623          	sw	a4,12(sp)
80002c54:	00000713          	li	a4,0
80002c58:	02078c63          	beqz	a5,80002c90 <strlen+0x58>
80002c5c:	00050793          	mv	a5,a0
80002c60:	0017c703          	lbu	a4,1(a5)
80002c64:	00178793          	addi	a5,a5,1
80002c68:	fe071ce3          	bnez	a4,80002c60 <strlen+0x28>
80002c6c:	40a78533          	sub	a0,a5,a0
80002c70:	00c12703          	lw	a4,12(sp)
80002c74:	0006a783          	lw	a5,0(a3)
80002c78:	00f747b3          	xor	a5,a4,a5
80002c7c:	00000713          	li	a4,0
80002c80:	00079c63          	bnez	a5,80002c98 <strlen+0x60>
80002c84:	01c12083          	lw	ra,28(sp)
80002c88:	02010113          	addi	sp,sp,32
80002c8c:	00008067          	ret
80002c90:	00000513          	li	a0,0
80002c94:	fddff06f          	j	80002c70 <strlen+0x38>
80002c98:	6a9000ef          	jal	ra,80003b40 <__stack_chk_fail>

80002c9c <strnlen>:
80002c9c:	fe010113          	addi	sp,sp,-32
80002ca0:	00001617          	auipc	a2,0x1
80002ca4:	52460613          	addi	a2,a2,1316 # 800041c4 <__stack_chk_guard>
80002ca8:	00062783          	lw	a5,0(a2)
80002cac:	00f12623          	sw	a5,12(sp)
80002cb0:	00000793          	li	a5,0
80002cb4:	00112e23          	sw	ra,28(sp)
80002cb8:	00b506b3          	add	a3,a0,a1
80002cbc:	00050793          	mv	a5,a0
80002cc0:	00059863          	bnez	a1,80002cd0 <strnlen+0x34>
80002cc4:	0400006f          	j	80002d04 <strnlen+0x68>
80002cc8:	00178793          	addi	a5,a5,1
80002ccc:	02f68863          	beq	a3,a5,80002cfc <strnlen+0x60>
80002cd0:	0007c703          	lbu	a4,0(a5)
80002cd4:	fe071ae3          	bnez	a4,80002cc8 <strnlen+0x2c>
80002cd8:	40a78533          	sub	a0,a5,a0
80002cdc:	00c12703          	lw	a4,12(sp)
80002ce0:	00062783          	lw	a5,0(a2)
80002ce4:	00f747b3          	xor	a5,a4,a5
80002ce8:	00000713          	li	a4,0
80002cec:	02079063          	bnez	a5,80002d0c <strnlen+0x70>
80002cf0:	01c12083          	lw	ra,28(sp)
80002cf4:	02010113          	addi	sp,sp,32
80002cf8:	00008067          	ret
80002cfc:	40a68533          	sub	a0,a3,a0
80002d00:	fddff06f          	j	80002cdc <strnlen+0x40>
80002d04:	00000513          	li	a0,0
80002d08:	fd5ff06f          	j	80002cdc <strnlen+0x40>
80002d0c:	635000ef          	jal	ra,80003b40 <__stack_chk_fail>

80002d10 <strcmp>:
80002d10:	fe010113          	addi	sp,sp,-32
80002d14:	00001697          	auipc	a3,0x1
80002d18:	4b068693          	addi	a3,a3,1200 # 800041c4 <__stack_chk_guard>
80002d1c:	00112e23          	sw	ra,28(sp)
80002d20:	0006a783          	lw	a5,0(a3)
80002d24:	00f12623          	sw	a5,12(sp)
80002d28:	00000793          	li	a5,0
80002d2c:	0080006f          	j	80002d34 <strcmp+0x24>
80002d30:	00e79e63          	bne	a5,a4,80002d4c <strcmp+0x3c>
80002d34:	00054783          	lbu	a5,0(a0)
80002d38:	00158593          	addi	a1,a1,1
80002d3c:	00150513          	addi	a0,a0,1
80002d40:	fff5c703          	lbu	a4,-1(a1)
80002d44:	fe0796e3          	bnez	a5,80002d30 <strcmp+0x20>
80002d48:	00000793          	li	a5,0
80002d4c:	00c12603          	lw	a2,12(sp)
80002d50:	0006a683          	lw	a3,0(a3)
80002d54:	00d646b3          	xor	a3,a2,a3
80002d58:	00000613          	li	a2,0
80002d5c:	40e78533          	sub	a0,a5,a4
80002d60:	00069863          	bnez	a3,80002d70 <strcmp+0x60>
80002d64:	01c12083          	lw	ra,28(sp)
80002d68:	02010113          	addi	sp,sp,32
80002d6c:	00008067          	ret
80002d70:	5d1000ef          	jal	ra,80003b40 <__stack_chk_fail>

80002d74 <strcpy>:
80002d74:	fe010113          	addi	sp,sp,-32
80002d78:	00001697          	auipc	a3,0x1
80002d7c:	44c68693          	addi	a3,a3,1100 # 800041c4 <__stack_chk_guard>
80002d80:	0006a783          	lw	a5,0(a3)
80002d84:	00f12623          	sw	a5,12(sp)
80002d88:	00000793          	li	a5,0
80002d8c:	00112e23          	sw	ra,28(sp)
80002d90:	00050793          	mv	a5,a0
80002d94:	0005c703          	lbu	a4,0(a1)
80002d98:	00178793          	addi	a5,a5,1
80002d9c:	00158593          	addi	a1,a1,1
80002da0:	fee78fa3          	sb	a4,-1(a5)
80002da4:	fe0718e3          	bnez	a4,80002d94 <strcpy+0x20>
80002da8:	00c12703          	lw	a4,12(sp)
80002dac:	0006a783          	lw	a5,0(a3)
80002db0:	00f747b3          	xor	a5,a4,a5
80002db4:	00000713          	li	a4,0
80002db8:	00079863          	bnez	a5,80002dc8 <strcpy+0x54>
80002dbc:	01c12083          	lw	ra,28(sp)
80002dc0:	02010113          	addi	sp,sp,32
80002dc4:	00008067          	ret
80002dc8:	579000ef          	jal	ra,80003b40 <__stack_chk_fail>

80002dcc <atol>:
80002dcc:	fe010113          	addi	sp,sp,-32
80002dd0:	00112e23          	sw	ra,28(sp)
80002dd4:	00001597          	auipc	a1,0x1
80002dd8:	3f058593          	addi	a1,a1,1008 # 800041c4 <__stack_chk_guard>
80002ddc:	00054703          	lbu	a4,0(a0)
80002de0:	0005a683          	lw	a3,0(a1)
80002de4:	00d12623          	sw	a3,12(sp)
80002de8:	00000693          	li	a3,0
80002dec:	02000693          	li	a3,32
80002df0:	00050793          	mv	a5,a0
80002df4:	00d71863          	bne	a4,a3,80002e04 <atol+0x38>
80002df8:	0017c703          	lbu	a4,1(a5)
80002dfc:	00178793          	addi	a5,a5,1
80002e00:	fed70ce3          	beq	a4,a3,80002df8 <atol+0x2c>
80002e04:	02d00693          	li	a3,45
80002e08:	06d70e63          	beq	a4,a3,80002e84 <atol+0xb8>
80002e0c:	02b00693          	li	a3,43
80002e10:	04d70e63          	beq	a4,a3,80002e6c <atol+0xa0>
80002e14:	0007c683          	lbu	a3,0(a5)
80002e18:	00000813          	li	a6,0
80002e1c:	06068063          	beqz	a3,80002e7c <atol+0xb0>
80002e20:	00000513          	li	a0,0
80002e24:	00178793          	addi	a5,a5,1
80002e28:	00251713          	slli	a4,a0,0x2
80002e2c:	fd068613          	addi	a2,a3,-48
80002e30:	0007c683          	lbu	a3,0(a5)
80002e34:	00a70733          	add	a4,a4,a0
80002e38:	00171713          	slli	a4,a4,0x1
80002e3c:	00e60533          	add	a0,a2,a4
80002e40:	fe0692e3          	bnez	a3,80002e24 <atol+0x58>
80002e44:	00080463          	beqz	a6,80002e4c <atol+0x80>
80002e48:	40a00533          	neg	a0,a0
80002e4c:	00c12703          	lw	a4,12(sp)
80002e50:	0005a783          	lw	a5,0(a1)
80002e54:	00f747b3          	xor	a5,a4,a5
80002e58:	00000713          	li	a4,0
80002e5c:	04079063          	bnez	a5,80002e9c <atol+0xd0>
80002e60:	01c12083          	lw	ra,28(sp)
80002e64:	02010113          	addi	sp,sp,32
80002e68:	00008067          	ret
80002e6c:	0017c683          	lbu	a3,1(a5)
80002e70:	00000813          	li	a6,0
80002e74:	00178793          	addi	a5,a5,1
80002e78:	fa0694e3          	bnez	a3,80002e20 <atol+0x54>
80002e7c:	00000513          	li	a0,0
80002e80:	fcdff06f          	j	80002e4c <atol+0x80>
80002e84:	0017c683          	lbu	a3,1(a5)
80002e88:	00100813          	li	a6,1
80002e8c:	00178793          	addi	a5,a5,1
80002e90:	f80698e3          	bnez	a3,80002e20 <atol+0x54>
80002e94:	00000513          	li	a0,0
80002e98:	fb5ff06f          	j	80002e4c <atol+0x80>
80002e9c:	4a5000ef          	jal	ra,80003b40 <__stack_chk_fail>

80002ea0 <UartStdOutInit>:
80002ea0:	fe010113          	addi	sp,sp,-32
80002ea4:	00001717          	auipc	a4,0x1
80002ea8:	32070713          	addi	a4,a4,800 # 800041c4 <__stack_chk_guard>
80002eac:	00072783          	lw	a5,0(a4)
80002eb0:	00f12623          	sw	a5,12(sp)
80002eb4:	00000793          	li	a5,0
80002eb8:	540007b7          	lui	a5,0x54000
80002ebc:	00112e23          	sw	ra,28(sp)
80002ec0:	1b200693          	li	a3,434
80002ec4:	00d7ac23          	sw	a3,24(a5) # 54000018 <_start-0x2bffffe8>
80002ec8:	00100693          	li	a3,1
80002ecc:	00d7a423          	sw	a3,8(a5)
80002ed0:	00d7a623          	sw	a3,12(a5)
80002ed4:	00c12683          	lw	a3,12(sp)
80002ed8:	00072783          	lw	a5,0(a4)
80002edc:	00f6c7b3          	xor	a5,a3,a5
80002ee0:	00000693          	li	a3,0
80002ee4:	00079863          	bnez	a5,80002ef4 <UartStdOutInit+0x54>
80002ee8:	01c12083          	lw	ra,28(sp)
80002eec:	02010113          	addi	sp,sp,32
80002ef0:	00008067          	ret
80002ef4:	44d000ef          	jal	ra,80003b40 <__stack_chk_fail>

80002ef8 <UartEndSimulation>:
80002ef8:	00001797          	auipc	a5,0x1
80002efc:	2cc78793          	addi	a5,a5,716 # 800041c4 <__stack_chk_guard>
80002f00:	ff010113          	addi	sp,sp,-16
80002f04:	0007a703          	lw	a4,0(a5)
80002f08:	00e12623          	sw	a4,12(sp)
80002f0c:	00000713          	li	a4,0
80002f10:	540007b7          	lui	a5,0x54000
80002f14:	0007a783          	lw	a5,0(a5) # 54000000 <_start-0x2c000000>
80002f18:	0207d263          	bgez	a5,80002f3c <UartEndSimulation+0x44>
80002f1c:	707076b7          	lui	a3,0x70707
80002f20:	deadc737          	lui	a4,0xdeadc
80002f24:	07068693          	addi	a3,a3,112 # 70707070 <_start-0xf8f8f90>
80002f28:	eef70713          	addi	a4,a4,-273 # deadbeef <__global_pointer$+0x5ead7567>
80002f2c:	54000637          	lui	a2,0x54000
80002f30:	00e6a023          	sw	a4,0(a3)
80002f34:	00062783          	lw	a5,0(a2) # 54000000 <_start-0x2c000000>
80002f38:	fe07cce3          	bltz	a5,80002f30 <UartEndSimulation+0x38>
80002f3c:	540007b7          	lui	a5,0x54000
80002f40:	00400713          	li	a4,4
80002f44:	00e7a023          	sw	a4,0(a5) # 54000000 <_start-0x2c000000>
80002f48:	0000006f          	j	80002f48 <UartEndSimulation+0x50>

80002f4c <uartputchar>:
80002f4c:	fe010113          	addi	sp,sp,-32
80002f50:	00001597          	auipc	a1,0x1
80002f54:	27458593          	addi	a1,a1,628 # 800041c4 <__stack_chk_guard>
80002f58:	0005a783          	lw	a5,0(a1)
80002f5c:	00f12623          	sw	a5,12(sp)
80002f60:	00000793          	li	a5,0
80002f64:	540007b7          	lui	a5,0x54000
80002f68:	0007a783          	lw	a5,0(a5) # 54000000 <_start-0x2c000000>
80002f6c:	00112e23          	sw	ra,28(sp)
80002f70:	0207d263          	bgez	a5,80002f94 <uartputchar+0x48>
80002f74:	707076b7          	lui	a3,0x70707
80002f78:	deadc737          	lui	a4,0xdeadc
80002f7c:	07068693          	addi	a3,a3,112 # 70707070 <_start-0xf8f8f90>
80002f80:	eef70713          	addi	a4,a4,-273 # deadbeef <__global_pointer$+0x5ead7567>
80002f84:	54000637          	lui	a2,0x54000
80002f88:	00e6a023          	sw	a4,0(a3)
80002f8c:	00062783          	lw	a5,0(a2) # 54000000 <_start-0x2c000000>
80002f90:	fe07cce3          	bltz	a5,80002f88 <uartputchar+0x3c>
80002f94:	00a00793          	li	a5,10
80002f98:	02f50663          	beq	a0,a5,80002fc4 <uartputchar+0x78>
80002f9c:	540007b7          	lui	a5,0x54000
80002fa0:	00a7a023          	sw	a0,0(a5) # 54000000 <_start-0x2c000000>
80002fa4:	00c12703          	lw	a4,12(sp)
80002fa8:	0005a783          	lw	a5,0(a1)
80002fac:	00f747b3          	xor	a5,a4,a5
80002fb0:	00000713          	li	a4,0
80002fb4:	04079663          	bnez	a5,80003000 <uartputchar+0xb4>
80002fb8:	01c12083          	lw	ra,28(sp)
80002fbc:	02010113          	addi	sp,sp,32
80002fc0:	00008067          	ret
80002fc4:	540007b7          	lui	a5,0x54000
80002fc8:	0007a783          	lw	a5,0(a5) # 54000000 <_start-0x2c000000>
80002fcc:	0207d263          	bgez	a5,80002ff0 <uartputchar+0xa4>
80002fd0:	707076b7          	lui	a3,0x70707
80002fd4:	deadc737          	lui	a4,0xdeadc
80002fd8:	07068693          	addi	a3,a3,112 # 70707070 <_start-0xf8f8f90>
80002fdc:	eef70713          	addi	a4,a4,-273 # deadbeef <__global_pointer$+0x5ead7567>
80002fe0:	54000637          	lui	a2,0x54000
80002fe4:	00e6a023          	sw	a4,0(a3)
80002fe8:	00062783          	lw	a5,0(a2) # 54000000 <_start-0x2c000000>
80002fec:	fe07cce3          	bltz	a5,80002fe4 <uartputchar+0x98>
80002ff0:	540007b7          	lui	a5,0x54000
80002ff4:	00d00713          	li	a4,13
80002ff8:	00e7a023          	sw	a4,0(a5) # 54000000 <_start-0x2c000000>
80002ffc:	fa1ff06f          	j	80002f9c <uartputchar+0x50>
80003000:	341000ef          	jal	ra,80003b40 <__stack_chk_fail>

80003004 <uartprint>:
80003004:	00054583          	lbu	a1,0(a0)
80003008:	fe010113          	addi	sp,sp,-32
8000300c:	00001317          	auipc	t1,0x1
80003010:	1b830313          	addi	t1,t1,440 # 800041c4 <__stack_chk_guard>
80003014:	00112e23          	sw	ra,28(sp)
80003018:	00032783          	lw	a5,0(t1)
8000301c:	00f12623          	sw	a5,12(sp)
80003020:	00000793          	li	a5,0
80003024:	04058463          	beqz	a1,8000306c <uartprint+0x68>
80003028:	deadc6b7          	lui	a3,0xdeadc
8000302c:	54000737          	lui	a4,0x54000
80003030:	70707837          	lui	a6,0x70707
80003034:	eef68693          	addi	a3,a3,-273 # deadbeef <__global_pointer$+0x5ead7567>
80003038:	00a00893          	li	a7,10
8000303c:	00d00e13          	li	t3,13
80003040:	00072783          	lw	a5,0(a4) # 54000000 <_start-0x2c000000>
80003044:	00150513          	addi	a0,a0,1
80003048:	0007da63          	bgez	a5,8000305c <uartprint+0x58>
8000304c:	07080613          	addi	a2,a6,112 # 70707070 <_start-0xf8f8f90>
80003050:	00d62023          	sw	a3,0(a2)
80003054:	00072783          	lw	a5,0(a4)
80003058:	fe07cce3          	bltz	a5,80003050 <uartprint+0x4c>
8000305c:	03158863          	beq	a1,a7,8000308c <uartprint+0x88>
80003060:	00b72023          	sw	a1,0(a4)
80003064:	00054583          	lbu	a1,0(a0)
80003068:	fc059ce3          	bnez	a1,80003040 <uartprint+0x3c>
8000306c:	00c12703          	lw	a4,12(sp)
80003070:	00032783          	lw	a5,0(t1)
80003074:	00f747b3          	xor	a5,a4,a5
80003078:	00000713          	li	a4,0
8000307c:	02079863          	bnez	a5,800030ac <uartprint+0xa8>
80003080:	01c12083          	lw	ra,28(sp)
80003084:	02010113          	addi	sp,sp,32
80003088:	00008067          	ret
8000308c:	00072783          	lw	a5,0(a4)
80003090:	0007da63          	bgez	a5,800030a4 <uartprint+0xa0>
80003094:	07080613          	addi	a2,a6,112
80003098:	00d62023          	sw	a3,0(a2)
8000309c:	00072783          	lw	a5,0(a4)
800030a0:	fe07cce3          	bltz	a5,80003098 <uartprint+0x94>
800030a4:	01c72023          	sw	t3,0(a4)
800030a8:	fb9ff06f          	j	80003060 <uartprint+0x5c>
800030ac:	295000ef          	jal	ra,80003b40 <__stack_chk_fail>

800030b0 <uartprint_uint_bin>:
800030b0:	fe010113          	addi	sp,sp,-32
800030b4:	00001317          	auipc	t1,0x1
800030b8:	11030313          	addi	t1,t1,272 # 800041c4 <__stack_chk_guard>
800030bc:	deadc637          	lui	a2,0xdeadc
800030c0:	00112e23          	sw	ra,28(sp)
800030c4:	00032783          	lw	a5,0(t1)
800030c8:	00f12623          	sw	a5,12(sp)
800030cc:	00000793          	li	a5,0
800030d0:	02000813          	li	a6,32
800030d4:	54000737          	lui	a4,0x54000
800030d8:	707078b7          	lui	a7,0x70707
800030dc:	eef60613          	addi	a2,a2,-273 # deadbeef <__global_pointer$+0x5ead7567>
800030e0:	00072783          	lw	a5,0(a4) # 54000000 <_start-0x2c000000>
800030e4:	00052593          	slti	a1,a0,0
800030e8:	03058593          	addi	a1,a1,48
800030ec:	07088693          	addi	a3,a7,112 # 70707070 <_start-0xf8f8f90>
800030f0:	0007d863          	bgez	a5,80003100 <uartprint_uint_bin+0x50>
800030f4:	00c6a023          	sw	a2,0(a3)
800030f8:	00072783          	lw	a5,0(a4)
800030fc:	fe07cce3          	bltz	a5,800030f4 <uartprint_uint_bin+0x44>
80003100:	00b72023          	sw	a1,0(a4)
80003104:	fff80813          	addi	a6,a6,-1
80003108:	00151513          	slli	a0,a0,0x1
8000310c:	fc081ae3          	bnez	a6,800030e0 <uartprint_uint_bin+0x30>
80003110:	00072783          	lw	a5,0(a4)
80003114:	0207d263          	bgez	a5,80003138 <uartprint_uint_bin+0x88>
80003118:	707076b7          	lui	a3,0x70707
8000311c:	deadc737          	lui	a4,0xdeadc
80003120:	07068693          	addi	a3,a3,112 # 70707070 <_start-0xf8f8f90>
80003124:	eef70713          	addi	a4,a4,-273 # deadbeef <__global_pointer$+0x5ead7567>
80003128:	54000637          	lui	a2,0x54000
8000312c:	00e6a023          	sw	a4,0(a3)
80003130:	00062783          	lw	a5,0(a2) # 54000000 <_start-0x2c000000>
80003134:	fe07cce3          	bltz	a5,8000312c <uartprint_uint_bin+0x7c>
80003138:	540007b7          	lui	a5,0x54000
8000313c:	0007a783          	lw	a5,0(a5) # 54000000 <_start-0x2c000000>
80003140:	0207d263          	bgez	a5,80003164 <uartprint_uint_bin+0xb4>
80003144:	707076b7          	lui	a3,0x70707
80003148:	deadc737          	lui	a4,0xdeadc
8000314c:	07068693          	addi	a3,a3,112 # 70707070 <_start-0xf8f8f90>
80003150:	eef70713          	addi	a4,a4,-273 # deadbeef <__global_pointer$+0x5ead7567>
80003154:	54000637          	lui	a2,0x54000
80003158:	00e6a023          	sw	a4,0(a3)
8000315c:	00062783          	lw	a5,0(a2) # 54000000 <_start-0x2c000000>
80003160:	fe07cce3          	bltz	a5,80003158 <uartprint_uint_bin+0xa8>
80003164:	540007b7          	lui	a5,0x54000
80003168:	00d00713          	li	a4,13
8000316c:	00e7a023          	sw	a4,0(a5) # 54000000 <_start-0x2c000000>
80003170:	00a00713          	li	a4,10
80003174:	00e7a023          	sw	a4,0(a5)
80003178:	00c12703          	lw	a4,12(sp)
8000317c:	00032783          	lw	a5,0(t1)
80003180:	00f747b3          	xor	a5,a4,a5
80003184:	00000713          	li	a4,0
80003188:	00079863          	bnez	a5,80003198 <uartprint_uint_bin+0xe8>
8000318c:	01c12083          	lw	ra,28(sp)
80003190:	02010113          	addi	sp,sp,32
80003194:	00008067          	ret
80003198:	1a9000ef          	jal	ra,80003b40 <__stack_chk_fail>

8000319c <uartgetchar>:
8000319c:	fe010113          	addi	sp,sp,-32
800031a0:	00001797          	auipc	a5,0x1
800031a4:	02478793          	addi	a5,a5,36 # 800041c4 <__stack_chk_guard>
800031a8:	0007a703          	lw	a4,0(a5)
800031ac:	00e12623          	sw	a4,12(sp)
800031b0:	00000713          	li	a4,0
800031b4:	54000737          	lui	a4,0x54000
800031b8:	00472503          	lw	a0,4(a4) # 54000004 <_start-0x2bfffffc>
800031bc:	00112e23          	sw	ra,28(sp)
800031c0:	00c12703          	lw	a4,12(sp)
800031c4:	0007a783          	lw	a5,0(a5)
800031c8:	00f747b3          	xor	a5,a4,a5
800031cc:	00000713          	li	a4,0
800031d0:	00079a63          	bnez	a5,800031e4 <uartgetchar+0x48>
800031d4:	01c12083          	lw	ra,28(sp)
800031d8:	0ff57513          	zext.b	a0,a0
800031dc:	02010113          	addi	sp,sp,32
800031e0:	00008067          	ret
800031e4:	15d000ef          	jal	ra,80003b40 <__stack_chk_fail>

800031e8 <uartdelay>:
800031e8:	fe010113          	addi	sp,sp,-32
800031ec:	00001797          	auipc	a5,0x1
800031f0:	fd878793          	addi	a5,a5,-40 # 800041c4 <__stack_chk_guard>
800031f4:	0007a703          	lw	a4,0(a5)
800031f8:	00e12623          	sw	a4,12(sp)
800031fc:	00000713          	li	a4,0
80003200:	00112e23          	sw	ra,28(sp)
80003204:	00c12703          	lw	a4,12(sp)
80003208:	0007a783          	lw	a5,0(a5)
8000320c:	00f747b3          	xor	a5,a4,a5
80003210:	00000713          	li	a4,0
80003214:	00079863          	bnez	a5,80003224 <uartdelay+0x3c>
80003218:	01c12083          	lw	ra,28(sp)
8000321c:	02010113          	addi	sp,sp,32
80003220:	00008067          	ret
80003224:	11d000ef          	jal	ra,80003b40 <__stack_chk_fail>

80003228 <__udivdi3>:
80003228:	00050893          	mv	a7,a0
8000322c:	00058313          	mv	t1,a1
80003230:	00060713          	mv	a4,a2
80003234:	00050813          	mv	a6,a0
80003238:	00058793          	mv	a5,a1
8000323c:	28069263          	bnez	a3,800034c0 <__udivdi3+0x298>
80003240:	800045b7          	lui	a1,0x80004
80003244:	ff858593          	addi	a1,a1,-8 # 80003ff8 <__global_pointer$+0xfffff670>
80003248:	0ec37663          	bgeu	t1,a2,80003334 <__udivdi3+0x10c>
8000324c:	000106b7          	lui	a3,0x10
80003250:	0cd67863          	bgeu	a2,a3,80003320 <__udivdi3+0xf8>
80003254:	10063693          	sltiu	a3,a2,256
80003258:	0016c693          	xori	a3,a3,1
8000325c:	00369693          	slli	a3,a3,0x3
80003260:	00d65533          	srl	a0,a2,a3
80003264:	00a585b3          	add	a1,a1,a0
80003268:	0005c583          	lbu	a1,0(a1)
8000326c:	02000513          	li	a0,32
80003270:	00d586b3          	add	a3,a1,a3
80003274:	40d505b3          	sub	a1,a0,a3
80003278:	00d50c63          	beq	a0,a3,80003290 <__udivdi3+0x68>
8000327c:	00b317b3          	sll	a5,t1,a1
80003280:	00d8d6b3          	srl	a3,a7,a3
80003284:	00b61733          	sll	a4,a2,a1
80003288:	00f6e7b3          	or	a5,a3,a5
8000328c:	00b89833          	sll	a6,a7,a1
80003290:	01075593          	srli	a1,a4,0x10
80003294:	02b7d333          	divu	t1,a5,a1
80003298:	01071613          	slli	a2,a4,0x10
8000329c:	01065613          	srli	a2,a2,0x10
800032a0:	02b7f7b3          	remu	a5,a5,a1
800032a4:	00030513          	mv	a0,t1
800032a8:	026608b3          	mul	a7,a2,t1
800032ac:	01079693          	slli	a3,a5,0x10
800032b0:	01085793          	srli	a5,a6,0x10
800032b4:	00d7e7b3          	or	a5,a5,a3
800032b8:	0117fe63          	bgeu	a5,a7,800032d4 <__udivdi3+0xac>
800032bc:	00f707b3          	add	a5,a4,a5
800032c0:	fff30513          	addi	a0,t1,-1
800032c4:	00e7e863          	bltu	a5,a4,800032d4 <__udivdi3+0xac>
800032c8:	0117f663          	bgeu	a5,a7,800032d4 <__udivdi3+0xac>
800032cc:	ffe30513          	addi	a0,t1,-2
800032d0:	00e787b3          	add	a5,a5,a4
800032d4:	411787b3          	sub	a5,a5,a7
800032d8:	02b7d8b3          	divu	a7,a5,a1
800032dc:	01081813          	slli	a6,a6,0x10
800032e0:	01085813          	srli	a6,a6,0x10
800032e4:	02b7f7b3          	remu	a5,a5,a1
800032e8:	031606b3          	mul	a3,a2,a7
800032ec:	01079793          	slli	a5,a5,0x10
800032f0:	00f86833          	or	a6,a6,a5
800032f4:	00088793          	mv	a5,a7
800032f8:	00d87c63          	bgeu	a6,a3,80003310 <__udivdi3+0xe8>
800032fc:	01070833          	add	a6,a4,a6
80003300:	fff88793          	addi	a5,a7,-1
80003304:	00e86663          	bltu	a6,a4,80003310 <__udivdi3+0xe8>
80003308:	00d87463          	bgeu	a6,a3,80003310 <__udivdi3+0xe8>
8000330c:	ffe88793          	addi	a5,a7,-2
80003310:	01051513          	slli	a0,a0,0x10
80003314:	00f56533          	or	a0,a0,a5
80003318:	00000593          	li	a1,0
8000331c:	00008067          	ret
80003320:	01000537          	lui	a0,0x1000
80003324:	01000693          	li	a3,16
80003328:	f2a66ce3          	bltu	a2,a0,80003260 <__udivdi3+0x38>
8000332c:	01800693          	li	a3,24
80003330:	f31ff06f          	j	80003260 <__udivdi3+0x38>
80003334:	00000693          	li	a3,0
80003338:	00060c63          	beqz	a2,80003350 <__udivdi3+0x128>
8000333c:	000107b7          	lui	a5,0x10
80003340:	0cf67063          	bgeu	a2,a5,80003400 <__udivdi3+0x1d8>
80003344:	10063693          	sltiu	a3,a2,256
80003348:	0016c693          	xori	a3,a3,1
8000334c:	00369693          	slli	a3,a3,0x3
80003350:	00d657b3          	srl	a5,a2,a3
80003354:	00f585b3          	add	a1,a1,a5
80003358:	0005c783          	lbu	a5,0(a1)
8000335c:	00d787b3          	add	a5,a5,a3
80003360:	02000693          	li	a3,32
80003364:	40f685b3          	sub	a1,a3,a5
80003368:	0af69663          	bne	a3,a5,80003414 <__udivdi3+0x1ec>
8000336c:	40c307b3          	sub	a5,t1,a2
80003370:	00100593          	li	a1,1
80003374:	01075893          	srli	a7,a4,0x10
80003378:	0317de33          	divu	t3,a5,a7
8000337c:	01071613          	slli	a2,a4,0x10
80003380:	01065613          	srli	a2,a2,0x10
80003384:	01085693          	srli	a3,a6,0x10
80003388:	0317f7b3          	remu	a5,a5,a7
8000338c:	000e0513          	mv	a0,t3
80003390:	03c60333          	mul	t1,a2,t3
80003394:	01079793          	slli	a5,a5,0x10
80003398:	00f6e7b3          	or	a5,a3,a5
8000339c:	0067fe63          	bgeu	a5,t1,800033b8 <__udivdi3+0x190>
800033a0:	00f707b3          	add	a5,a4,a5
800033a4:	fffe0513          	addi	a0,t3,-1
800033a8:	00e7e863          	bltu	a5,a4,800033b8 <__udivdi3+0x190>
800033ac:	0067f663          	bgeu	a5,t1,800033b8 <__udivdi3+0x190>
800033b0:	ffee0513          	addi	a0,t3,-2
800033b4:	00e787b3          	add	a5,a5,a4
800033b8:	406787b3          	sub	a5,a5,t1
800033bc:	0317d333          	divu	t1,a5,a7
800033c0:	01081813          	slli	a6,a6,0x10
800033c4:	01085813          	srli	a6,a6,0x10
800033c8:	0317f7b3          	remu	a5,a5,a7
800033cc:	026606b3          	mul	a3,a2,t1
800033d0:	01079793          	slli	a5,a5,0x10
800033d4:	00f86833          	or	a6,a6,a5
800033d8:	00030793          	mv	a5,t1
800033dc:	00d87c63          	bgeu	a6,a3,800033f4 <__udivdi3+0x1cc>
800033e0:	01070833          	add	a6,a4,a6
800033e4:	fff30793          	addi	a5,t1,-1
800033e8:	00e86663          	bltu	a6,a4,800033f4 <__udivdi3+0x1cc>
800033ec:	00d87463          	bgeu	a6,a3,800033f4 <__udivdi3+0x1cc>
800033f0:	ffe30793          	addi	a5,t1,-2
800033f4:	01051513          	slli	a0,a0,0x10
800033f8:	00f56533          	or	a0,a0,a5
800033fc:	00008067          	ret
80003400:	010007b7          	lui	a5,0x1000
80003404:	01000693          	li	a3,16
80003408:	f4f664e3          	bltu	a2,a5,80003350 <__udivdi3+0x128>
8000340c:	01800693          	li	a3,24
80003410:	f41ff06f          	j	80003350 <__udivdi3+0x128>
80003414:	00b61733          	sll	a4,a2,a1
80003418:	00f356b3          	srl	a3,t1,a5
8000341c:	01075513          	srli	a0,a4,0x10
80003420:	00b31333          	sll	t1,t1,a1
80003424:	00f8d7b3          	srl	a5,a7,a5
80003428:	0067e7b3          	or	a5,a5,t1
8000342c:	02a6d333          	divu	t1,a3,a0
80003430:	01071613          	slli	a2,a4,0x10
80003434:	01065613          	srli	a2,a2,0x10
80003438:	00b89833          	sll	a6,a7,a1
8000343c:	02a6f6b3          	remu	a3,a3,a0
80003440:	026608b3          	mul	a7,a2,t1
80003444:	01069593          	slli	a1,a3,0x10
80003448:	0107d693          	srli	a3,a5,0x10
8000344c:	00b6e6b3          	or	a3,a3,a1
80003450:	00030593          	mv	a1,t1
80003454:	0116fe63          	bgeu	a3,a7,80003470 <__udivdi3+0x248>
80003458:	00d706b3          	add	a3,a4,a3
8000345c:	fff30593          	addi	a1,t1,-1
80003460:	00e6e863          	bltu	a3,a4,80003470 <__udivdi3+0x248>
80003464:	0116f663          	bgeu	a3,a7,80003470 <__udivdi3+0x248>
80003468:	ffe30593          	addi	a1,t1,-2
8000346c:	00e686b3          	add	a3,a3,a4
80003470:	411686b3          	sub	a3,a3,a7
80003474:	02a6d8b3          	divu	a7,a3,a0
80003478:	01079793          	slli	a5,a5,0x10
8000347c:	0107d793          	srli	a5,a5,0x10
80003480:	02a6f6b3          	remu	a3,a3,a0
80003484:	03160633          	mul	a2,a2,a7
80003488:	01069693          	slli	a3,a3,0x10
8000348c:	00d7e7b3          	or	a5,a5,a3
80003490:	00088693          	mv	a3,a7
80003494:	00c7fe63          	bgeu	a5,a2,800034b0 <__udivdi3+0x288>
80003498:	00f707b3          	add	a5,a4,a5
8000349c:	fff88693          	addi	a3,a7,-1
800034a0:	00e7e863          	bltu	a5,a4,800034b0 <__udivdi3+0x288>
800034a4:	00c7f663          	bgeu	a5,a2,800034b0 <__udivdi3+0x288>
800034a8:	ffe88693          	addi	a3,a7,-2
800034ac:	00e787b3          	add	a5,a5,a4
800034b0:	01059593          	slli	a1,a1,0x10
800034b4:	40c787b3          	sub	a5,a5,a2
800034b8:	00d5e5b3          	or	a1,a1,a3
800034bc:	eb9ff06f          	j	80003374 <__udivdi3+0x14c>
800034c0:	18d5e663          	bltu	a1,a3,8000364c <__udivdi3+0x424>
800034c4:	000107b7          	lui	a5,0x10
800034c8:	04f6f463          	bgeu	a3,a5,80003510 <__udivdi3+0x2e8>
800034cc:	1006b713          	sltiu	a4,a3,256
800034d0:	00174713          	xori	a4,a4,1
800034d4:	00371713          	slli	a4,a4,0x3
800034d8:	800047b7          	lui	a5,0x80004
800034dc:	00e6d5b3          	srl	a1,a3,a4
800034e0:	ff878793          	addi	a5,a5,-8 # 80003ff8 <__global_pointer$+0xfffff670>
800034e4:	00b787b3          	add	a5,a5,a1
800034e8:	0007c783          	lbu	a5,0(a5)
800034ec:	00e787b3          	add	a5,a5,a4
800034f0:	02000713          	li	a4,32
800034f4:	40f705b3          	sub	a1,a4,a5
800034f8:	02f71663          	bne	a4,a5,80003524 <__udivdi3+0x2fc>
800034fc:	00100513          	li	a0,1
80003500:	e066eee3          	bltu	a3,t1,8000331c <__udivdi3+0xf4>
80003504:	00c8b533          	sltu	a0,a7,a2
80003508:	00154513          	xori	a0,a0,1
8000350c:	00008067          	ret
80003510:	010007b7          	lui	a5,0x1000
80003514:	01000713          	li	a4,16
80003518:	fcf6e0e3          	bltu	a3,a5,800034d8 <__udivdi3+0x2b0>
8000351c:	01800713          	li	a4,24
80003520:	fb9ff06f          	j	800034d8 <__udivdi3+0x2b0>
80003524:	00f65733          	srl	a4,a2,a5
80003528:	00b696b3          	sll	a3,a3,a1
8000352c:	00d766b3          	or	a3,a4,a3
80003530:	00f35733          	srl	a4,t1,a5
80003534:	00b31333          	sll	t1,t1,a1
80003538:	00f8d7b3          	srl	a5,a7,a5
8000353c:	0067e7b3          	or	a5,a5,t1
80003540:	0106d313          	srli	t1,a3,0x10
80003544:	02675eb3          	divu	t4,a4,t1
80003548:	01069813          	slli	a6,a3,0x10
8000354c:	01085813          	srli	a6,a6,0x10
80003550:	00b61633          	sll	a2,a2,a1
80003554:	02677733          	remu	a4,a4,t1
80003558:	03d80e33          	mul	t3,a6,t4
8000355c:	01071513          	slli	a0,a4,0x10
80003560:	0107d713          	srli	a4,a5,0x10
80003564:	00a76733          	or	a4,a4,a0
80003568:	000e8513          	mv	a0,t4
8000356c:	01c77e63          	bgeu	a4,t3,80003588 <__udivdi3+0x360>
80003570:	00e68733          	add	a4,a3,a4
80003574:	fffe8513          	addi	a0,t4,-1
80003578:	00d76863          	bltu	a4,a3,80003588 <__udivdi3+0x360>
8000357c:	01c77663          	bgeu	a4,t3,80003588 <__udivdi3+0x360>
80003580:	ffee8513          	addi	a0,t4,-2
80003584:	00d70733          	add	a4,a4,a3
80003588:	41c70733          	sub	a4,a4,t3
8000358c:	02675e33          	divu	t3,a4,t1
80003590:	01079793          	slli	a5,a5,0x10
80003594:	0107d793          	srli	a5,a5,0x10
80003598:	02677733          	remu	a4,a4,t1
8000359c:	03c80833          	mul	a6,a6,t3
800035a0:	01071713          	slli	a4,a4,0x10
800035a4:	00e7e7b3          	or	a5,a5,a4
800035a8:	000e0713          	mv	a4,t3
800035ac:	0107fe63          	bgeu	a5,a6,800035c8 <__udivdi3+0x3a0>
800035b0:	00f687b3          	add	a5,a3,a5
800035b4:	fffe0713          	addi	a4,t3,-1
800035b8:	00d7e863          	bltu	a5,a3,800035c8 <__udivdi3+0x3a0>
800035bc:	0107f663          	bgeu	a5,a6,800035c8 <__udivdi3+0x3a0>
800035c0:	ffee0713          	addi	a4,t3,-2
800035c4:	00d787b3          	add	a5,a5,a3
800035c8:	01051513          	slli	a0,a0,0x10
800035cc:	00010e37          	lui	t3,0x10
800035d0:	00e56533          	or	a0,a0,a4
800035d4:	fffe0693          	addi	a3,t3,-1 # ffff <_start-0x7fff0001>
800035d8:	00d57733          	and	a4,a0,a3
800035dc:	410787b3          	sub	a5,a5,a6
800035e0:	00d676b3          	and	a3,a2,a3
800035e4:	01055813          	srli	a6,a0,0x10
800035e8:	01065613          	srli	a2,a2,0x10
800035ec:	02d70333          	mul	t1,a4,a3
800035f0:	02d806b3          	mul	a3,a6,a3
800035f4:	02c70733          	mul	a4,a4,a2
800035f8:	02c80833          	mul	a6,a6,a2
800035fc:	00d70633          	add	a2,a4,a3
80003600:	01035713          	srli	a4,t1,0x10
80003604:	00c70733          	add	a4,a4,a2
80003608:	00d77463          	bgeu	a4,a3,80003610 <__udivdi3+0x3e8>
8000360c:	01c80833          	add	a6,a6,t3
80003610:	01075693          	srli	a3,a4,0x10
80003614:	010686b3          	add	a3,a3,a6
80003618:	02d7e663          	bltu	a5,a3,80003644 <__udivdi3+0x41c>
8000361c:	ced79ee3          	bne	a5,a3,80003318 <__udivdi3+0xf0>
80003620:	000107b7          	lui	a5,0x10
80003624:	fff78793          	addi	a5,a5,-1 # ffff <_start-0x7fff0001>
80003628:	00f77733          	and	a4,a4,a5
8000362c:	01071713          	slli	a4,a4,0x10
80003630:	00f37333          	and	t1,t1,a5
80003634:	00b898b3          	sll	a7,a7,a1
80003638:	00670733          	add	a4,a4,t1
8000363c:	00000593          	li	a1,0
80003640:	cce8fee3          	bgeu	a7,a4,8000331c <__udivdi3+0xf4>
80003644:	fff50513          	addi	a0,a0,-1 # ffffff <_start-0x7f000001>
80003648:	cd1ff06f          	j	80003318 <__udivdi3+0xf0>
8000364c:	00000593          	li	a1,0
80003650:	00000513          	li	a0,0
80003654:	00008067          	ret

80003658 <__umoddi3>:
80003658:	00060813          	mv	a6,a2
8000365c:	00050793          	mv	a5,a0
80003660:	00058713          	mv	a4,a1
80003664:	20069663          	bnez	a3,80003870 <__umoddi3+0x218>
80003668:	800048b7          	lui	a7,0x80004
8000366c:	ff888893          	addi	a7,a7,-8 # 80003ff8 <__global_pointer$+0xfffff670>
80003670:	0cc5fc63          	bgeu	a1,a2,80003748 <__umoddi3+0xf0>
80003674:	000106b7          	lui	a3,0x10
80003678:	0ad67e63          	bgeu	a2,a3,80003734 <__umoddi3+0xdc>
8000367c:	10063693          	sltiu	a3,a2,256
80003680:	0016c693          	xori	a3,a3,1
80003684:	00369693          	slli	a3,a3,0x3
80003688:	00d65333          	srl	t1,a2,a3
8000368c:	006888b3          	add	a7,a7,t1
80003690:	0008c883          	lbu	a7,0(a7)
80003694:	02000313          	li	t1,32
80003698:	00d886b3          	add	a3,a7,a3
8000369c:	40d308b3          	sub	a7,t1,a3
800036a0:	00d30c63          	beq	t1,a3,800036b8 <__umoddi3+0x60>
800036a4:	01159733          	sll	a4,a1,a7
800036a8:	00d556b3          	srl	a3,a0,a3
800036ac:	01161833          	sll	a6,a2,a7
800036b0:	00e6e733          	or	a4,a3,a4
800036b4:	011517b3          	sll	a5,a0,a7
800036b8:	01085613          	srli	a2,a6,0x10
800036bc:	02c756b3          	divu	a3,a4,a2
800036c0:	01081513          	slli	a0,a6,0x10
800036c4:	01055513          	srli	a0,a0,0x10
800036c8:	02c77733          	remu	a4,a4,a2
800036cc:	02a686b3          	mul	a3,a3,a0
800036d0:	01071593          	slli	a1,a4,0x10
800036d4:	0107d713          	srli	a4,a5,0x10
800036d8:	00b76733          	or	a4,a4,a1
800036dc:	00d77a63          	bgeu	a4,a3,800036f0 <__umoddi3+0x98>
800036e0:	00e80733          	add	a4,a6,a4
800036e4:	01076663          	bltu	a4,a6,800036f0 <__umoddi3+0x98>
800036e8:	00d77463          	bgeu	a4,a3,800036f0 <__umoddi3+0x98>
800036ec:	01070733          	add	a4,a4,a6
800036f0:	40d70733          	sub	a4,a4,a3
800036f4:	02c756b3          	divu	a3,a4,a2
800036f8:	02c77733          	remu	a4,a4,a2
800036fc:	02a686b3          	mul	a3,a3,a0
80003700:	01079793          	slli	a5,a5,0x10
80003704:	01071713          	slli	a4,a4,0x10
80003708:	0107d793          	srli	a5,a5,0x10
8000370c:	00e7e7b3          	or	a5,a5,a4
80003710:	00d7fa63          	bgeu	a5,a3,80003724 <__umoddi3+0xcc>
80003714:	00f807b3          	add	a5,a6,a5
80003718:	0107e663          	bltu	a5,a6,80003724 <__umoddi3+0xcc>
8000371c:	00d7f463          	bgeu	a5,a3,80003724 <__umoddi3+0xcc>
80003720:	010787b3          	add	a5,a5,a6
80003724:	40d787b3          	sub	a5,a5,a3
80003728:	0117d533          	srl	a0,a5,a7
8000372c:	00000593          	li	a1,0
80003730:	00008067          	ret
80003734:	01000337          	lui	t1,0x1000
80003738:	01000693          	li	a3,16
8000373c:	f46666e3          	bltu	a2,t1,80003688 <__umoddi3+0x30>
80003740:	01800693          	li	a3,24
80003744:	f45ff06f          	j	80003688 <__umoddi3+0x30>
80003748:	00000693          	li	a3,0
8000374c:	00060c63          	beqz	a2,80003764 <__umoddi3+0x10c>
80003750:	00010737          	lui	a4,0x10
80003754:	06e67e63          	bgeu	a2,a4,800037d0 <__umoddi3+0x178>
80003758:	10063693          	sltiu	a3,a2,256
8000375c:	0016c693          	xori	a3,a3,1
80003760:	00369693          	slli	a3,a3,0x3
80003764:	00d65733          	srl	a4,a2,a3
80003768:	00e888b3          	add	a7,a7,a4
8000376c:	0008c703          	lbu	a4,0(a7)
80003770:	00d70733          	add	a4,a4,a3
80003774:	02000693          	li	a3,32
80003778:	40e688b3          	sub	a7,a3,a4
8000377c:	06e69463          	bne	a3,a4,800037e4 <__umoddi3+0x18c>
80003780:	40c58733          	sub	a4,a1,a2
80003784:	01085593          	srli	a1,a6,0x10
80003788:	02b75633          	divu	a2,a4,a1
8000378c:	01081513          	slli	a0,a6,0x10
80003790:	01055513          	srli	a0,a0,0x10
80003794:	0107d693          	srli	a3,a5,0x10
80003798:	02b77733          	remu	a4,a4,a1
8000379c:	02a60633          	mul	a2,a2,a0
800037a0:	01071713          	slli	a4,a4,0x10
800037a4:	00e6e733          	or	a4,a3,a4
800037a8:	00c77a63          	bgeu	a4,a2,800037bc <__umoddi3+0x164>
800037ac:	00e80733          	add	a4,a6,a4
800037b0:	01076663          	bltu	a4,a6,800037bc <__umoddi3+0x164>
800037b4:	00c77463          	bgeu	a4,a2,800037bc <__umoddi3+0x164>
800037b8:	01070733          	add	a4,a4,a6
800037bc:	40c70733          	sub	a4,a4,a2
800037c0:	02b756b3          	divu	a3,a4,a1
800037c4:	02b77733          	remu	a4,a4,a1
800037c8:	02a686b3          	mul	a3,a3,a0
800037cc:	f35ff06f          	j	80003700 <__umoddi3+0xa8>
800037d0:	01000737          	lui	a4,0x1000
800037d4:	01000693          	li	a3,16
800037d8:	f8e666e3          	bltu	a2,a4,80003764 <__umoddi3+0x10c>
800037dc:	01800693          	li	a3,24
800037e0:	f85ff06f          	j	80003764 <__umoddi3+0x10c>
800037e4:	01161833          	sll	a6,a2,a7
800037e8:	00e5d6b3          	srl	a3,a1,a4
800037ec:	011517b3          	sll	a5,a0,a7
800037f0:	011595b3          	sll	a1,a1,a7
800037f4:	00e55733          	srl	a4,a0,a4
800037f8:	01085513          	srli	a0,a6,0x10
800037fc:	00b76733          	or	a4,a4,a1
80003800:	02a6d5b3          	divu	a1,a3,a0
80003804:	01081313          	slli	t1,a6,0x10
80003808:	01035313          	srli	t1,t1,0x10
8000380c:	02a6f6b3          	remu	a3,a3,a0
80003810:	026585b3          	mul	a1,a1,t1
80003814:	01069613          	slli	a2,a3,0x10
80003818:	01075693          	srli	a3,a4,0x10
8000381c:	00c6e6b3          	or	a3,a3,a2
80003820:	00b6fa63          	bgeu	a3,a1,80003834 <__umoddi3+0x1dc>
80003824:	00d806b3          	add	a3,a6,a3
80003828:	0106e663          	bltu	a3,a6,80003834 <__umoddi3+0x1dc>
8000382c:	00b6f463          	bgeu	a3,a1,80003834 <__umoddi3+0x1dc>
80003830:	010686b3          	add	a3,a3,a6
80003834:	40b686b3          	sub	a3,a3,a1
80003838:	02a6d633          	divu	a2,a3,a0
8000383c:	01071713          	slli	a4,a4,0x10
80003840:	01075713          	srli	a4,a4,0x10
80003844:	02a6f6b3          	remu	a3,a3,a0
80003848:	02660633          	mul	a2,a2,t1
8000384c:	01069693          	slli	a3,a3,0x10
80003850:	00d76733          	or	a4,a4,a3
80003854:	00c77a63          	bgeu	a4,a2,80003868 <__umoddi3+0x210>
80003858:	00e80733          	add	a4,a6,a4
8000385c:	01076663          	bltu	a4,a6,80003868 <__umoddi3+0x210>
80003860:	00c77463          	bgeu	a4,a2,80003868 <__umoddi3+0x210>
80003864:	01070733          	add	a4,a4,a6
80003868:	40c70733          	sub	a4,a4,a2
8000386c:	f19ff06f          	j	80003784 <__umoddi3+0x12c>
80003870:	1cd5e463          	bltu	a1,a3,80003a38 <__umoddi3+0x3e0>
80003874:	00010837          	lui	a6,0x10
80003878:	0506fe63          	bgeu	a3,a6,800038d4 <__umoddi3+0x27c>
8000387c:	1006b813          	sltiu	a6,a3,256
80003880:	00184813          	xori	a6,a6,1
80003884:	00381813          	slli	a6,a6,0x3
80003888:	800048b7          	lui	a7,0x80004
8000388c:	0106d333          	srl	t1,a3,a6
80003890:	ff888893          	addi	a7,a7,-8 # 80003ff8 <__global_pointer$+0xfffff670>
80003894:	006888b3          	add	a7,a7,t1
80003898:	0008c883          	lbu	a7,0(a7)
8000389c:	02000313          	li	t1,32
800038a0:	010888b3          	add	a7,a7,a6
800038a4:	41130833          	sub	a6,t1,a7
800038a8:	05131063          	bne	t1,a7,800038e8 <__umoddi3+0x290>
800038ac:	00b6e463          	bltu	a3,a1,800038b4 <__umoddi3+0x25c>
800038b0:	00c56c63          	bltu	a0,a2,800038c8 <__umoddi3+0x270>
800038b4:	40c50633          	sub	a2,a0,a2
800038b8:	40d586b3          	sub	a3,a1,a3
800038bc:	00c53733          	sltu	a4,a0,a2
800038c0:	00060793          	mv	a5,a2
800038c4:	40e68733          	sub	a4,a3,a4
800038c8:	00078513          	mv	a0,a5
800038cc:	00070593          	mv	a1,a4
800038d0:	00008067          	ret
800038d4:	010008b7          	lui	a7,0x1000
800038d8:	01000813          	li	a6,16
800038dc:	fb16e6e3          	bltu	a3,a7,80003888 <__umoddi3+0x230>
800038e0:	01800813          	li	a6,24
800038e4:	fa5ff06f          	j	80003888 <__umoddi3+0x230>
800038e8:	011657b3          	srl	a5,a2,a7
800038ec:	010696b3          	sll	a3,a3,a6
800038f0:	00d7e6b3          	or	a3,a5,a3
800038f4:	0115d733          	srl	a4,a1,a7
800038f8:	0106de13          	srli	t3,a3,0x10
800038fc:	03c75f33          	divu	t5,a4,t3
80003900:	01069313          	slli	t1,a3,0x10
80003904:	01035313          	srli	t1,t1,0x10
80003908:	010597b3          	sll	a5,a1,a6
8000390c:	011555b3          	srl	a1,a0,a7
80003910:	00f5e5b3          	or	a1,a1,a5
80003914:	0105d793          	srli	a5,a1,0x10
80003918:	01061633          	sll	a2,a2,a6
8000391c:	01051533          	sll	a0,a0,a6
80003920:	03c77733          	remu	a4,a4,t3
80003924:	03e30eb3          	mul	t4,t1,t5
80003928:	01071713          	slli	a4,a4,0x10
8000392c:	00e7e7b3          	or	a5,a5,a4
80003930:	000f0713          	mv	a4,t5
80003934:	01d7fe63          	bgeu	a5,t4,80003950 <__umoddi3+0x2f8>
80003938:	00f687b3          	add	a5,a3,a5
8000393c:	ffff0713          	addi	a4,t5,-1
80003940:	00d7e863          	bltu	a5,a3,80003950 <__umoddi3+0x2f8>
80003944:	01d7f663          	bgeu	a5,t4,80003950 <__umoddi3+0x2f8>
80003948:	ffef0713          	addi	a4,t5,-2
8000394c:	00d787b3          	add	a5,a5,a3
80003950:	41d787b3          	sub	a5,a5,t4
80003954:	03c7deb3          	divu	t4,a5,t3
80003958:	01059593          	slli	a1,a1,0x10
8000395c:	0105d593          	srli	a1,a1,0x10
80003960:	03c7f7b3          	remu	a5,a5,t3
80003964:	000e8e13          	mv	t3,t4
80003968:	03d30333          	mul	t1,t1,t4
8000396c:	01079793          	slli	a5,a5,0x10
80003970:	00f5e5b3          	or	a1,a1,a5
80003974:	0065fe63          	bgeu	a1,t1,80003990 <__umoddi3+0x338>
80003978:	00b685b3          	add	a1,a3,a1
8000397c:	fffe8e13          	addi	t3,t4,-1
80003980:	00d5e863          	bltu	a1,a3,80003990 <__umoddi3+0x338>
80003984:	0065f663          	bgeu	a1,t1,80003990 <__umoddi3+0x338>
80003988:	ffee8e13          	addi	t3,t4,-2
8000398c:	00d585b3          	add	a1,a1,a3
80003990:	01071793          	slli	a5,a4,0x10
80003994:	00010f37          	lui	t5,0x10
80003998:	01c7e7b3          	or	a5,a5,t3
8000399c:	406585b3          	sub	a1,a1,t1
800039a0:	ffff0313          	addi	t1,t5,-1 # ffff <_start-0x7fff0001>
800039a4:	0067f733          	and	a4,a5,t1
800039a8:	01065e13          	srli	t3,a2,0x10
800039ac:	0107d793          	srli	a5,a5,0x10
800039b0:	00667333          	and	t1,a2,t1
800039b4:	02670eb3          	mul	t4,a4,t1
800039b8:	02678333          	mul	t1,a5,t1
800039bc:	03c70733          	mul	a4,a4,t3
800039c0:	03c787b3          	mul	a5,a5,t3
800039c4:	00670e33          	add	t3,a4,t1
800039c8:	010ed713          	srli	a4,t4,0x10
800039cc:	01c70733          	add	a4,a4,t3
800039d0:	00677463          	bgeu	a4,t1,800039d8 <__umoddi3+0x380>
800039d4:	01e787b3          	add	a5,a5,t5
800039d8:	01075313          	srli	t1,a4,0x10
800039dc:	00f307b3          	add	a5,t1,a5
800039e0:	00010337          	lui	t1,0x10
800039e4:	fff30313          	addi	t1,t1,-1 # ffff <_start-0x7fff0001>
800039e8:	00677733          	and	a4,a4,t1
800039ec:	01071713          	slli	a4,a4,0x10
800039f0:	006efeb3          	and	t4,t4,t1
800039f4:	01d70733          	add	a4,a4,t4
800039f8:	00f5e663          	bltu	a1,a5,80003a04 <__umoddi3+0x3ac>
800039fc:	00f59e63          	bne	a1,a5,80003a18 <__umoddi3+0x3c0>
80003a00:	00e57c63          	bgeu	a0,a4,80003a18 <__umoddi3+0x3c0>
80003a04:	40c70633          	sub	a2,a4,a2
80003a08:	00c73333          	sltu	t1,a4,a2
80003a0c:	00d306b3          	add	a3,t1,a3
80003a10:	00060713          	mv	a4,a2
80003a14:	40d787b3          	sub	a5,a5,a3
80003a18:	40e50733          	sub	a4,a0,a4
80003a1c:	00e53533          	sltu	a0,a0,a4
80003a20:	40f585b3          	sub	a1,a1,a5
80003a24:	40a585b3          	sub	a1,a1,a0
80003a28:	011598b3          	sll	a7,a1,a7
80003a2c:	01075733          	srl	a4,a4,a6
80003a30:	00e8e533          	or	a0,a7,a4
80003a34:	0105d5b3          	srl	a1,a1,a6
80003a38:	00008067          	ret

Disassembly of section .text.startup:

80003a3c <main>:
80003a3c:	fe010113          	addi	sp,sp,-32
80003a40:	00812c23          	sw	s0,24(sp)
80003a44:	00000417          	auipc	s0,0x0
80003a48:	78040413          	addi	s0,s0,1920 # 800041c4 <__stack_chk_guard>
80003a4c:	00042783          	lw	a5,0(s0)
80003a50:	00f12623          	sw	a5,12(sp)
80003a54:	00000793          	li	a5,0
80003a58:	00112e23          	sw	ra,28(sp)
80003a5c:	c44ff0ef          	jal	ra,80002ea0 <UartStdOutInit>
80003a60:	00000517          	auipc	a0,0x0
80003a64:	37c50513          	addi	a0,a0,892 # 80003ddc <__errno+0x48>
80003a68:	e6dfe0ef          	jal	ra,800028d4 <printf>
80003a6c:	00000597          	auipc	a1,0x0
80003a70:	7405a583          	lw	a1,1856(a1) # 800041ac <seed5_volatile>
80003a74:	00000517          	auipc	a0,0x0
80003a78:	37850513          	addi	a0,a0,888 # 80003dec <__errno+0x58>
80003a7c:	e59fe0ef          	jal	ra,800028d4 <printf>
80003a80:	00000597          	auipc	a1,0x0
80003a84:	7085a583          	lw	a1,1800(a1) # 80004188 <seed4_volatile>
80003a88:	00000517          	auipc	a0,0x0
80003a8c:	37c50513          	addi	a0,a0,892 # 80003e04 <__errno+0x70>
80003a90:	e45fe0ef          	jal	ra,800028d4 <printf>
80003a94:	80c1a583          	lw	a1,-2036(gp) # 80004194 <seed3_volatile>
80003a98:	00000517          	auipc	a0,0x0
80003a9c:	38450513          	addi	a0,a0,900 # 80003e1c <__errno+0x88>
80003aa0:	e35fe0ef          	jal	ra,800028d4 <printf>
80003aa4:	00000597          	auipc	a1,0x0
80003aa8:	7185a583          	lw	a1,1816(a1) # 800041bc <seed2_volatile>
80003aac:	00000517          	auipc	a0,0x0
80003ab0:	38850513          	addi	a0,a0,904 # 80003e34 <__errno+0xa0>
80003ab4:	e21fe0ef          	jal	ra,800028d4 <printf>
80003ab8:	00000597          	auipc	a1,0x0
80003abc:	7085a583          	lw	a1,1800(a1) # 800041c0 <seed1_volatile>
80003ac0:	00000517          	auipc	a0,0x0
80003ac4:	38c50513          	addi	a0,a0,908 # 80003e4c <__errno+0xb8>
80003ac8:	e0dfe0ef          	jal	ra,800028d4 <printf>
80003acc:	00000593          	li	a1,0
80003ad0:	00000517          	auipc	a0,0x0
80003ad4:	39450513          	addi	a0,a0,916 # 80003e64 <__errno+0xd0>
80003ad8:	dfdfe0ef          	jal	ra,800028d4 <printf>
80003adc:	00000593          	li	a1,0
80003ae0:	00000517          	auipc	a0,0x0
80003ae4:	39050513          	addi	a0,a0,912 # 80003e70 <__errno+0xdc>
80003ae8:	dedfe0ef          	jal	ra,800028d4 <printf>
80003aec:	00000593          	li	a1,0
80003af0:	00000517          	auipc	a0,0x0
80003af4:	38c50513          	addi	a0,a0,908 # 80003e7c <__errno+0xe8>
80003af8:	dddfe0ef          	jal	ra,800028d4 <printf>
80003afc:	00000593          	li	a1,0
80003b00:	00000517          	auipc	a0,0x0
80003b04:	38850513          	addi	a0,a0,904 # 80003e88 <__errno+0xf4>
80003b08:	dcdfe0ef          	jal	ra,800028d4 <printf>
80003b0c:	00c12703          	lw	a4,12(sp)
80003b10:	00042783          	lw	a5,0(s0)
80003b14:	00f747b3          	xor	a5,a4,a5
80003b18:	00000713          	li	a4,0
80003b1c:	02079063          	bnez	a5,80003b3c <main+0x100>
80003b20:	01812403          	lw	s0,24(sp)
80003b24:	01c12083          	lw	ra,28(sp)
80003b28:	00000593          	li	a1,0
80003b2c:	00000517          	auipc	a0,0x0
80003b30:	36850513          	addi	a0,a0,872 # 80003e94 <__errno+0x100>
80003b34:	02010113          	addi	sp,sp,32
80003b38:	d9dfe06f          	j	800028d4 <printf>
80003b3c:	004000ef          	jal	ra,80003b40 <__stack_chk_fail>
